Archive member included to satisfy reference by file (symbol)

../app/libapp.a(main.c.obj)   (--whole-archive)
libzephyr.a(crc32_sw.c.obj)   (--whole-archive)
libzephyr.a(crc16_sw.c.obj)   (--whole-archive)
libzephyr.a(crc8_sw.c.obj)    (--whole-archive)
libzephyr.a(crc7_sw.c.obj)    (--whole-archive)
libzephyr.a(dec.c.obj)        (--whole-archive)
libzephyr.a(fdtable.c.obj)    (--whole-archive)
libzephyr.a(hex.c.obj)        (--whole-archive)
libzephyr.a(mempool.c.obj)    (--whole-archive)
libzephyr.a(notify.c.obj)     (--whole-archive)
libzephyr.a(printk.c.obj)     (--whole-archive)
libzephyr.a(onoff.c.obj)      (--whole-archive)
libzephyr.a(rb.c.obj)         (--whole-archive)
libzephyr.a(sem.c.obj)        (--whole-archive)
libzephyr.a(thread_entry.c.obj)
                              (--whole-archive)
libzephyr.a(timeutil.c.obj)   (--whole-archive)
libzephyr.a(work_q.c.obj)     (--whole-archive)
libzephyr.a(heap.c.obj)       (--whole-archive)
libzephyr.a(heap-validate.c.obj)
                              (--whole-archive)
libzephyr.a(mutex.c.obj)      (--whole-archive)
libzephyr.a(configs.c.obj)    (--whole-archive)
libzephyr.a(validate_base_addresses.c.obj)
                              (--whole-archive)
libzephyr.a(validate_enabled_instances.c.obj)
                              (--whole-archive)
libzephyr.a(power.c.obj)      (--whole-archive)
libzephyr.a(policy_residency.c.obj)
                              (--whole-archive)
libzephyr.a(uart_console.c.obj)
                              (--whole-archive)
libzephyr.a(nrf_power_clock.c.obj)
                              (--whole-archive)
libzephyr.a(sys_clock_init.c.obj)
                              (--whole-archive)
libzephyr.a(nrf_rtc_timer.c.obj)
                              (--whole-archive)
libzephyr.a(SEGGER_RTT.c.obj)
                              (--whole-archive)
libzephyr.a(SEGGER_RTT_zephyr.c.obj)
                              (--whole-archive)
arch/common/libarch__common.a(isr_tables.c.obj)
                              (--whole-archive)
arch/common/libarch__common.a(sw_isr_common.c.obj)
                              (--whole-archive)
arch/arch/arm/core/aarch32/libarch__arm__core__aarch32.a(swap.c.obj)
                              (--whole-archive)
arch/arch/arm/core/aarch32/libarch__arm__core__aarch32.a(swap_helper.S.obj)
                              (--whole-archive)
arch/arch/arm/core/aarch32/libarch__arm__core__aarch32.a(irq_manage.c.obj)
                              (--whole-archive)
arch/arch/arm/core/aarch32/libarch__arm__core__aarch32.a(thread.c.obj)
                              (--whole-archive)
arch/arch/arm/core/aarch32/libarch__arm__core__aarch32.a(cpu_idle.S.obj)
                              (--whole-archive)
arch/arch/arm/core/aarch32/libarch__arm__core__aarch32.a(fatal.c.obj)
                              (--whole-archive)
arch/arch/arm/core/aarch32/libarch__arm__core__aarch32.a(nmi.c.obj)
                              (--whole-archive)
arch/arch/arm/core/aarch32/libarch__arm__core__aarch32.a(nmi_on_reset.S.obj)
                              (--whole-archive)
arch/arch/arm/core/aarch32/libarch__arm__core__aarch32.a(prep_c.c.obj)
                              (--whole-archive)
arch/arch/arm/core/aarch32/libarch__arm__core__aarch32.a(isr_wrapper.S.obj)
                              (--whole-archive)
arch/arch/arm/core/aarch32/libarch__arm__core__aarch32.a(userspace.S.obj)
                              (--whole-archive)
arch/arch/arm/core/aarch32/cortex_m/libarch__arm__core__aarch32__cortex_m.a(vector_table.S.obj)
                              (--whole-archive)
arch/arch/arm/core/aarch32/cortex_m/libarch__arm__core__aarch32__cortex_m.a(reset.S.obj)
                              (--whole-archive)
arch/arch/arm/core/aarch32/cortex_m/libarch__arm__core__aarch32__cortex_m.a(fault_s.S.obj)
                              (--whole-archive)
arch/arch/arm/core/aarch32/cortex_m/libarch__arm__core__aarch32__cortex_m.a(fault.c.obj)
                              (--whole-archive)
arch/arch/arm/core/aarch32/cortex_m/libarch__arm__core__aarch32__cortex_m.a(exc_exit.S.obj)
                              (--whole-archive)
arch/arch/arm/core/aarch32/cortex_m/libarch__arm__core__aarch32__cortex_m.a(scb.c.obj)
                              (--whole-archive)
arch/arch/arm/core/aarch32/cortex_m/libarch__arm__core__aarch32__cortex_m.a(irq_init.c.obj)
                              (--whole-archive)
arch/arch/arm/core/aarch32/cortex_m/libarch__arm__core__aarch32__cortex_m.a(thread_abort.c.obj)
                              (--whole-archive)
arch/arch/arm/core/aarch32/cortex_m/mpu/libarch__arm__core__aarch32__cortex_m__mpu.a(arm_core_mpu.c.obj)
                              (--whole-archive)
arch/arch/arm/core/aarch32/cortex_m/mpu/libarch__arm__core__aarch32__cortex_m__mpu.a(arm_mpu.c.obj)
                              (--whole-archive)
lib/libc/minimal/liblib__libc__minimal.a(atoi.c.obj)
                              (--whole-archive)
lib/libc/minimal/liblib__libc__minimal.a(strtol.c.obj)
                              (--whole-archive)
lib/libc/minimal/liblib__libc__minimal.a(strtoul.c.obj)
                              (--whole-archive)
lib/libc/minimal/liblib__libc__minimal.a(malloc.c.obj)
                              (--whole-archive)
lib/libc/minimal/liblib__libc__minimal.a(bsearch.c.obj)
                              (--whole-archive)
lib/libc/minimal/liblib__libc__minimal.a(exit.c.obj)
                              (--whole-archive)
lib/libc/minimal/liblib__libc__minimal.a(strncasecmp.c.obj)
                              (--whole-archive)
lib/libc/minimal/liblib__libc__minimal.a(strstr.c.obj)
                              (--whole-archive)
lib/libc/minimal/liblib__libc__minimal.a(string.c.obj)
                              (--whole-archive)
lib/libc/minimal/liblib__libc__minimal.a(strspn.c.obj)
                              (--whole-archive)
lib/libc/minimal/liblib__libc__minimal.a(prf.c.obj)
                              (--whole-archive)
lib/libc/minimal/liblib__libc__minimal.a(stdout_console.c.obj)
                              (--whole-archive)
lib/libc/minimal/liblib__libc__minimal.a(sprintf.c.obj)
                              (--whole-archive)
lib/libc/minimal/liblib__libc__minimal.a(fprintf.c.obj)
                              (--whole-archive)
lib/libc/minimal/liblib__libc__minimal.a(gmtime.c.obj)
                              (--whole-archive)
lib/posix/liblib__posix.a(pthread_common.c.obj)
                              (--whole-archive)
lib/posix/liblib__posix.a(nanosleep.c.obj)
                              (--whole-archive)
soc/arm/common/cortex_m/libsoc__arm__common__cortex_m.a(arm_mpu_regions.c.obj)
                              (--whole-archive)
soc/arm/nordic_nrf/nrf52/libsoc__arm__nordic_nrf__nrf52.a(soc.c.obj)
                              (--whole-archive)
soc/arm/nordic_nrf/nrf52/libsoc__arm__nordic_nrf__nrf52.a(power.c.obj)
                              (--whole-archive)
drivers/gpio/libdrivers__gpio.a(gpio_nrfx.c.obj)
                              (--whole-archive)
drivers/gpio/libdrivers__gpio.a(gpio_handlers.c.obj)
                              (--whole-archive)
drivers/serial/libdrivers__serial.a(uart_nrfx_uart.c.obj)
                              (--whole-archive)
drivers/serial/libdrivers__serial.a(uart_handlers.c.obj)
                              (--whole-archive)
../modules/nordic/lib..__modules__hal__nordic.a(system_nrf52.c.obj)
                              (--whole-archive)
../modules/nordic/lib..__modules__hal__nordic.a(nrfx_glue.c.obj)
                              (--whole-archive)
kernel/libkernel.a(device.c.obj)
                              ../app/libapp.a(main.c.obj) (z_impl_device_get_binding)
kernel/libkernel.a(errno.c.obj)
                              libzephyr.a(fdtable.c.obj) (z_impl_z_errno)
kernel/libkernel.a(fatal.c.obj)
                              arch/arch/arm/core/aarch32/libarch__arm__core__aarch32.a(fatal.c.obj) (z_fatal_error)
kernel/libkernel.a(idle.c.obj)
                              arch/arch/arm/core/aarch32/libarch__arm__core__aarch32.a(irq_manage.c.obj) (z_sys_power_save_idle_exit)
kernel/libkernel.a(init.c.obj)
                              arch/arch/arm/core/aarch32/libarch__arm__core__aarch32.a(prep_c.c.obj) (z_bss_zero)
kernel/libkernel.a(msg_q.c.obj)
                              ../app/libapp.a(main.c.obj) (k_msgq_init)
kernel/libkernel.a(mutex.c.obj)
                              libzephyr.a(fdtable.c.obj) (z_impl_k_mutex_lock)
kernel/libkernel.a(queue.c.obj)
                              libzephyr.a(work_q.c.obj) (z_impl_k_queue_init)
kernel/libkernel.a(sched.c.obj)
                              kernel/libkernel.a(msg_q.c.obj) (z_reschedule)
kernel/libkernel.a(sem.c.obj)
                              libzephyr.a(nrf_power_clock.c.obj) (z_impl_k_sem_give)
kernel/libkernel.a(stack.c.obj)
                              ../app/libapp.a(main.c.obj) (k_stack_init)
kernel/libkernel.a(thread.c.obj)
                              drivers/serial/libdrivers__serial.a(uart_nrfx_uart.c.obj) (k_is_in_isr)
kernel/libkernel.a(work_q.c.obj)
                              ../app/libapp.a(main.c.obj) (k_work_q_start)
kernel/libkernel.a(timeout.c.obj)
                              kernel/libkernel.a(sched.c.obj) (z_add_timeout)
kernel/libkernel.a(timer.c.obj)
                              ../app/libapp.a(main.c.obj) (k_timer_init)
kernel/libkernel.a(futex.c.obj)
                              libzephyr.a(sem.c.obj) (z_impl_k_futex_wake)
kernel/libkernel.a(mem_domain.c.obj)
                              kernel/libkernel.a(thread.c.obj) (k_mem_domain_add_thread)
kernel/libkernel.a(userspace.c.obj)
                              arch/arch/arm/core/aarch32/libarch__arm__core__aarch32.a(thread.c.obj) (z_priv_stack_find)
kernel/libkernel.a(mempool.c.obj)
                              kernel/libkernel.a(msg_q.c.obj) (k_free)
kernel/libkernel.a(userspace_handler.c.obj)
                              kernel/libkernel.a(userspace.c.obj) (z_mrsh_k_object_access_grant)
kernel/libkernel.a(kheap.c.obj)
                              kernel/libkernel.a(mempool.c.obj) (k_mem_pool_alloc)
/home/huynhtai/Downloads/ebook_RTOS/Zephyr_SDK/arm-zephyr-eabi/bin/../lib/gcc/arm-zephyr-eabi/9.2.0/thumb/v7e-m/nofp/libgcc.a(_aeabi_ldivmod.o)
                              libzephyr.a(timeutil.c.obj) (__aeabi_ldivmod)
/home/huynhtai/Downloads/ebook_RTOS/Zephyr_SDK/arm-zephyr-eabi/bin/../lib/gcc/arm-zephyr-eabi/9.2.0/thumb/v7e-m/nofp/libgcc.a(_aeabi_uldivmod.o)
                              libzephyr.a(printk.c.obj) (__aeabi_uldivmod)
/home/huynhtai/Downloads/ebook_RTOS/Zephyr_SDK/arm-zephyr-eabi/bin/../lib/gcc/arm-zephyr-eabi/9.2.0/thumb/v7e-m/nofp/libgcc.a(_udivmoddi4.o)
                              /home/huynhtai/Downloads/ebook_RTOS/Zephyr_SDK/arm-zephyr-eabi/bin/../lib/gcc/arm-zephyr-eabi/9.2.0/thumb/v7e-m/nofp/libgcc.a(_aeabi_ldivmod.o) (__udivmoddi4)
/home/huynhtai/Downloads/ebook_RTOS/Zephyr_SDK/arm-zephyr-eabi/bin/../lib/gcc/arm-zephyr-eabi/9.2.0/thumb/v7e-m/nofp/libgcc.a(_dvmd_tls.o)
                              /home/huynhtai/Downloads/ebook_RTOS/Zephyr_SDK/arm-zephyr-eabi/bin/../lib/gcc/arm-zephyr-eabi/9.2.0/thumb/v7e-m/nofp/libgcc.a(_aeabi_ldivmod.o) (__aeabi_ldiv0)

Discarded input sections

 .text          0x0000000000000000        0x0 CMakeFiles/app_smem_unaligned_prebuilt.dir/misc/empty_file.c.obj
 .data          0x0000000000000000        0x0 CMakeFiles/app_smem_unaligned_prebuilt.dir/misc/empty_file.c.obj
 .bss           0x0000000000000000        0x0 CMakeFiles/app_smem_unaligned_prebuilt.dir/misc/empty_file.c.obj
 .debug_line    0x0000000000000000        0x0 CMakeFiles/app_smem_unaligned_prebuilt.dir/misc/empty_file.c.obj
 .debug_str     0x0000000000000000      0x175 CMakeFiles/app_smem_unaligned_prebuilt.dir/misc/empty_file.c.obj
 .comment       0x0000000000000000       0x33 CMakeFiles/app_smem_unaligned_prebuilt.dir/misc/empty_file.c.obj
 .text          0x0000000000000000        0x0 ../app/libapp.a(main.c.obj)
 .data          0x0000000000000000        0x0 ../app/libapp.a(main.c.obj)
 .bss           0x0000000000000000        0x0 ../app/libapp.a(main.c.obj)
 .bss.block_slab
                0x0000000000000000        0x4 ../app/libapp.a(main.c.obj)
 .text          0x0000000000000000        0x0 libzephyr.a(crc32_sw.c.obj)
 .data          0x0000000000000000        0x0 libzephyr.a(crc32_sw.c.obj)
 .bss           0x0000000000000000        0x0 libzephyr.a(crc32_sw.c.obj)
 .text.crc32_ieee_update
                0x0000000000000000       0x30 libzephyr.a(crc32_sw.c.obj)
 .text.crc32_ieee
                0x0000000000000000        0xa libzephyr.a(crc32_sw.c.obj)
 .debug_info    0x0000000000000000      0x17e libzephyr.a(crc32_sw.c.obj)
 .debug_abbrev  0x0000000000000000       0xe0 libzephyr.a(crc32_sw.c.obj)
 .debug_loc     0x0000000000000000      0x151 libzephyr.a(crc32_sw.c.obj)
 .debug_aranges
                0x0000000000000000       0x28 libzephyr.a(crc32_sw.c.obj)
 .debug_ranges  0x0000000000000000       0x58 libzephyr.a(crc32_sw.c.obj)
 .debug_line    0x0000000000000000      0x1d0 libzephyr.a(crc32_sw.c.obj)
 .debug_str     0x0000000000000000      0x233 libzephyr.a(crc32_sw.c.obj)
 .comment       0x0000000000000000       0x33 libzephyr.a(crc32_sw.c.obj)
 .debug_frame   0x0000000000000000       0x3c libzephyr.a(crc32_sw.c.obj)
 .text          0x0000000000000000        0x0 libzephyr.a(crc16_sw.c.obj)
 .data          0x0000000000000000        0x0 libzephyr.a(crc16_sw.c.obj)
 .bss           0x0000000000000000        0x0 libzephyr.a(crc16_sw.c.obj)
 .text.crc16    0x0000000000000000       0x5a libzephyr.a(crc16_sw.c.obj)
 .text.crc16_ccitt
                0x0000000000000000       0x26 libzephyr.a(crc16_sw.c.obj)
 .text.crc16_itu_t
                0x0000000000000000       0x28 libzephyr.a(crc16_sw.c.obj)
 .debug_info    0x0000000000000000      0x257 libzephyr.a(crc16_sw.c.obj)
 .debug_abbrev  0x0000000000000000       0xe9 libzephyr.a(crc16_sw.c.obj)
 .debug_loc     0x0000000000000000      0x2d2 libzephyr.a(crc16_sw.c.obj)
 .debug_aranges
                0x0000000000000000       0x30 libzephyr.a(crc16_sw.c.obj)
 .debug_ranges  0x0000000000000000       0x40 libzephyr.a(crc16_sw.c.obj)
 .debug_line    0x0000000000000000      0x2fc libzephyr.a(crc16_sw.c.obj)
 .debug_str     0x0000000000000000      0x262 libzephyr.a(crc16_sw.c.obj)
 .comment       0x0000000000000000       0x33 libzephyr.a(crc16_sw.c.obj)
 .debug_frame   0x0000000000000000       0x58 libzephyr.a(crc16_sw.c.obj)
 .text          0x0000000000000000        0x0 libzephyr.a(crc8_sw.c.obj)
 .data          0x0000000000000000        0x0 libzephyr.a(crc8_sw.c.obj)
 .bss           0x0000000000000000        0x0 libzephyr.a(crc8_sw.c.obj)
 .text.crc8_ccitt
                0x0000000000000000       0x30 libzephyr.a(crc8_sw.c.obj)
 .text.crc8     0x0000000000000000       0x3e libzephyr.a(crc8_sw.c.obj)
 .rodata.crc8_ccitt_small_table
                0x0000000000000000       0x10 libzephyr.a(crc8_sw.c.obj)
 .debug_info    0x0000000000000000      0x1f0 libzephyr.a(crc8_sw.c.obj)
 .debug_abbrev  0x0000000000000000       0xdc libzephyr.a(crc8_sw.c.obj)
 .debug_loc     0x0000000000000000      0x243 libzephyr.a(crc8_sw.c.obj)
 .debug_aranges
                0x0000000000000000       0x28 libzephyr.a(crc8_sw.c.obj)
 .debug_ranges  0x0000000000000000       0x18 libzephyr.a(crc8_sw.c.obj)
 .debug_line    0x0000000000000000      0x23c libzephyr.a(crc8_sw.c.obj)
 .debug_str     0x0000000000000000      0x256 libzephyr.a(crc8_sw.c.obj)
 .comment       0x0000000000000000       0x33 libzephyr.a(crc8_sw.c.obj)
 .debug_frame   0x0000000000000000       0x48 libzephyr.a(crc8_sw.c.obj)
 .text          0x0000000000000000        0x0 libzephyr.a(crc7_sw.c.obj)
 .data          0x0000000000000000        0x0 libzephyr.a(crc7_sw.c.obj)
 .bss           0x0000000000000000        0x0 libzephyr.a(crc7_sw.c.obj)
 .text.crc7_be  0x0000000000000000       0x20 libzephyr.a(crc7_sw.c.obj)
 .debug_info    0x0000000000000000      0x114 libzephyr.a(crc7_sw.c.obj)
 .debug_abbrev  0x0000000000000000       0xac libzephyr.a(crc7_sw.c.obj)
 .debug_loc     0x0000000000000000       0xc0 libzephyr.a(crc7_sw.c.obj)
 .debug_aranges
                0x0000000000000000       0x20 libzephyr.a(crc7_sw.c.obj)
 .debug_ranges  0x0000000000000000       0x10 libzephyr.a(crc7_sw.c.obj)
 .debug_line    0x0000000000000000      0x154 libzephyr.a(crc7_sw.c.obj)
 .debug_str     0x0000000000000000      0x214 libzephyr.a(crc7_sw.c.obj)
 .comment       0x0000000000000000       0x33 libzephyr.a(crc7_sw.c.obj)
 .debug_frame   0x0000000000000000       0x20 libzephyr.a(crc7_sw.c.obj)
 .text          0x0000000000000000        0x0 libzephyr.a(dec.c.obj)
 .data          0x0000000000000000        0x0 libzephyr.a(dec.c.obj)
 .bss           0x0000000000000000        0x0 libzephyr.a(dec.c.obj)
 .text.u8_to_dec
                0x0000000000000000       0x42 libzephyr.a(dec.c.obj)
 .debug_info    0x0000000000000000      0x118 libzephyr.a(dec.c.obj)
 .debug_abbrev  0x0000000000000000       0x9c libzephyr.a(dec.c.obj)
 .debug_loc     0x0000000000000000       0xfa libzephyr.a(dec.c.obj)
 .debug_aranges
                0x0000000000000000       0x20 libzephyr.a(dec.c.obj)
 .debug_ranges  0x0000000000000000       0x10 libzephyr.a(dec.c.obj)
 .debug_line    0x0000000000000000      0x141 libzephyr.a(dec.c.obj)
 .debug_str     0x0000000000000000      0x231 libzephyr.a(dec.c.obj)
 .comment       0x0000000000000000       0x33 libzephyr.a(dec.c.obj)
 .debug_frame   0x0000000000000000       0x30 libzephyr.a(dec.c.obj)
 .text          0x0000000000000000        0x0 libzephyr.a(fdtable.c.obj)
 .data          0x0000000000000000        0x0 libzephyr.a(fdtable.c.obj)
 .bss           0x0000000000000000        0x0 libzephyr.a(fdtable.c.obj)
 .text.arch_is_user_context
                0x0000000000000000       0x14 libzephyr.a(fdtable.c.obj)
 .text.z_errno  0x0000000000000000       0x1c libzephyr.a(fdtable.c.obj)
 .text._check_fd
                0x0000000000000000       0x28 libzephyr.a(fdtable.c.obj)
 .text.z_get_fd_obj
                0x0000000000000000       0x34 libzephyr.a(fdtable.c.obj)
 .text.z_get_fd_obj_and_vtable
                0x0000000000000000       0x28 libzephyr.a(fdtable.c.obj)
 .text.z_reserve_fd
                0x0000000000000000       0x6c libzephyr.a(fdtable.c.obj)
 .text.z_finalize_fd
                0x0000000000000000       0x20 libzephyr.a(fdtable.c.obj)
 .text.z_free_fd
                0x0000000000000000       0x10 libzephyr.a(fdtable.c.obj)
 .text.z_alloc_fd
                0x0000000000000000       0x28 libzephyr.a(fdtable.c.obj)
 .bss.fdtable   0x0000000000000000       0x20 libzephyr.a(fdtable.c.obj)
 .text          0x0000000000000000        0x0 libzephyr.a(hex.c.obj)
 .data          0x0000000000000000        0x0 libzephyr.a(hex.c.obj)
 .bss           0x0000000000000000        0x0 libzephyr.a(hex.c.obj)
 .text.char2hex
                0x0000000000000000       0x30 libzephyr.a(hex.c.obj)
 .text.hex2char
                0x0000000000000000       0x1e libzephyr.a(hex.c.obj)
 .text.bin2hex  0x0000000000000000       0x5a libzephyr.a(hex.c.obj)
 .text.hex2bin  0x0000000000000000       0x74 libzephyr.a(hex.c.obj)
 .debug_info    0x0000000000000000      0x43d libzephyr.a(hex.c.obj)
 .debug_abbrev  0x0000000000000000      0x211 libzephyr.a(hex.c.obj)
 .debug_loc     0x0000000000000000      0x35f libzephyr.a(hex.c.obj)
 .debug_aranges
                0x0000000000000000       0x38 libzephyr.a(hex.c.obj)
 .debug_ranges  0x0000000000000000       0x40 libzephyr.a(hex.c.obj)
 .debug_line    0x0000000000000000      0x46e libzephyr.a(hex.c.obj)
 .debug_str     0x0000000000000000      0x304 libzephyr.a(hex.c.obj)
 .comment       0x0000000000000000       0x33 libzephyr.a(hex.c.obj)
 .debug_frame   0x0000000000000000       0x78 libzephyr.a(hex.c.obj)
 .text          0x0000000000000000        0x0 libzephyr.a(mempool.c.obj)
 .data          0x0000000000000000        0x0 libzephyr.a(mempool.c.obj)
 .bss           0x0000000000000000        0x0 libzephyr.a(mempool.c.obj)
 .text.get_bit_ptr
                0x0000000000000000       0x30 libzephyr.a(mempool.c.obj)
 .text.pool_irq_lock.isra.0.part.0
                0x0000000000000000       0x12 libzephyr.a(mempool.c.obj)
 .text.pool_irq_unlock.isra.0
                0x0000000000000000        0xe libzephyr.a(mempool.c.obj)
 .text.z_sys_mutex_kernel_lock.constprop.0
                0x0000000000000000       0x2e libzephyr.a(mempool.c.obj)
 .text.z_sys_mutex_kernel_unlock
                0x0000000000000000       0x2a libzephyr.a(mempool.c.obj)
 .text.z_sys_mem_pool_base_init
                0x0000000000000000       0x88 libzephyr.a(mempool.c.obj)
 .text.z_sys_mem_pool_block_alloc
                0x0000000000000000      0x170 libzephyr.a(mempool.c.obj)
 .text.z_sys_mem_pool_block_free
                0x0000000000000000      0x128 libzephyr.a(mempool.c.obj)
 .text.sys_mem_pool_alloc
                0x0000000000000000       0x54 libzephyr.a(mempool.c.obj)
 .text.sys_mem_pool_free
                0x0000000000000000       0x3c libzephyr.a(mempool.c.obj)
 .text.sys_mem_pool_try_expand_inplace
                0x0000000000000000       0x2c libzephyr.a(mempool.c.obj)
 .debug_info    0x0000000000000000     0x206d libzephyr.a(mempool.c.obj)
 .debug_abbrev  0x0000000000000000      0x592 libzephyr.a(mempool.c.obj)
 .debug_loc     0x0000000000000000     0x125e libzephyr.a(mempool.c.obj)
 .debug_aranges
                0x0000000000000000       0x70 libzephyr.a(mempool.c.obj)
 .debug_ranges  0x0000000000000000      0x3c8 libzephyr.a(mempool.c.obj)
 .debug_line    0x0000000000000000      0xebd libzephyr.a(mempool.c.obj)
 .debug_str     0x0000000000000000      0xb5c libzephyr.a(mempool.c.obj)
 .comment       0x0000000000000000       0x33 libzephyr.a(mempool.c.obj)
 .debug_frame   0x0000000000000000      0x188 libzephyr.a(mempool.c.obj)
 .text          0x0000000000000000        0x0 libzephyr.a(notify.c.obj)
 .data          0x0000000000000000        0x0 libzephyr.a(notify.c.obj)
 .bss           0x0000000000000000        0x0 libzephyr.a(notify.c.obj)
 .text          0x0000000000000000        0x0 libzephyr.a(printk.c.obj)
 .data          0x0000000000000000        0x0 libzephyr.a(printk.c.obj)
 .bss           0x0000000000000000        0x0 libzephyr.a(printk.c.obj)
 .text.str_out  0x0000000000000000       0x26 libzephyr.a(printk.c.obj)
 .text.__printk_get_hook
                0x0000000000000000        0xc libzephyr.a(printk.c.obj)
 .text.vsnprintk
                0x0000000000000000       0x28 libzephyr.a(printk.c.obj)
 .text.snprintk
                0x0000000000000000       0x1a libzephyr.a(printk.c.obj)
 .text          0x0000000000000000        0x0 libzephyr.a(onoff.c.obj)
 .data          0x0000000000000000        0x0 libzephyr.a(onoff.c.obj)
 .bss           0x0000000000000000        0x0 libzephyr.a(onoff.c.obj)
 .text.onoff_release
                0x0000000000000000       0x4a libzephyr.a(onoff.c.obj)
 .text.onoff_reset
                0x0000000000000000       0x64 libzephyr.a(onoff.c.obj)
 .text.onoff_cancel
                0x0000000000000000       0x60 libzephyr.a(onoff.c.obj)
 .text.onoff_monitor_register
                0x0000000000000000       0x3c libzephyr.a(onoff.c.obj)
 .text.onoff_monitor_unregister
                0x0000000000000000       0x5a libzephyr.a(onoff.c.obj)
 .text          0x0000000000000000        0x0 libzephyr.a(rb.c.obj)
 .data          0x0000000000000000        0x0 libzephyr.a(rb.c.obj)
 .bss           0x0000000000000000        0x0 libzephyr.a(rb.c.obj)
 .text.set_child
                0x0000000000000000       0x12 libzephyr.a(rb.c.obj)
 .text.find_and_stack
                0x0000000000000000       0x3a libzephyr.a(rb.c.obj)
 .text.rotate   0x0000000000000000       0x8c libzephyr.a(rb.c.obj)
 .text.fix_missing_black
                0x0000000000000000      0x172 libzephyr.a(rb.c.obj)
 .text.stack_left_limb
                0x0000000000000000       0x36 libzephyr.a(rb.c.obj)
 .text.z_rb_get_minmax
                0x0000000000000000       0x18 libzephyr.a(rb.c.obj)
 .text.rb_insert
                0x0000000000000000      0x132 libzephyr.a(rb.c.obj)
 .text.rb_remove
                0x0000000000000000      0x1ae libzephyr.a(rb.c.obj)
 .text.z_rb_walk
                0x0000000000000000       0x24 libzephyr.a(rb.c.obj)
 .text.z_rb_child
                0x0000000000000000        0xe libzephyr.a(rb.c.obj)
 .text.z_rb_is_black
                0x0000000000000000        0x8 libzephyr.a(rb.c.obj)
 .text.rb_contains
                0x0000000000000000       0x2c libzephyr.a(rb.c.obj)
 .text.z_rb_foreach_next
                0x0000000000000000       0x58 libzephyr.a(rb.c.obj)
 .debug_info    0x0000000000000000     0x299d libzephyr.a(rb.c.obj)
 .debug_abbrev  0x0000000000000000      0x54d libzephyr.a(rb.c.obj)
 .debug_loc     0x0000000000000000     0x22b5 libzephyr.a(rb.c.obj)
 .debug_aranges
                0x0000000000000000       0x80 libzephyr.a(rb.c.obj)
 .debug_ranges  0x0000000000000000      0x5f0 libzephyr.a(rb.c.obj)
 .debug_line    0x0000000000000000     0x1429 libzephyr.a(rb.c.obj)
 .debug_str     0x0000000000000000      0x90f libzephyr.a(rb.c.obj)
 .comment       0x0000000000000000       0x33 libzephyr.a(rb.c.obj)
 .debug_frame   0x0000000000000000      0x1bc libzephyr.a(rb.c.obj)
 .text          0x0000000000000000        0x0 libzephyr.a(sem.c.obj)
 .data          0x0000000000000000        0x0 libzephyr.a(sem.c.obj)
 .bss           0x0000000000000000        0x0 libzephyr.a(sem.c.obj)
 .text.sys_sem_init
                0x0000000000000000       0x2e libzephyr.a(sem.c.obj)
 .text.sys_sem_give
                0x0000000000000000       0x78 libzephyr.a(sem.c.obj)
 .text.sys_sem_take
                0x0000000000000000       0x76 libzephyr.a(sem.c.obj)
 .text.sys_sem_count_get
                0x0000000000000000       0x10 libzephyr.a(sem.c.obj)
 .debug_info    0x0000000000000000     0x12f6 libzephyr.a(sem.c.obj)
 .debug_abbrev  0x0000000000000000      0x3c6 libzephyr.a(sem.c.obj)
 .debug_loc     0x0000000000000000      0x558 libzephyr.a(sem.c.obj)
 .debug_aranges
                0x0000000000000000       0x38 libzephyr.a(sem.c.obj)
 .debug_ranges  0x0000000000000000       0xb8 libzephyr.a(sem.c.obj)
 .debug_line    0x0000000000000000      0x740 libzephyr.a(sem.c.obj)
 .debug_str     0x0000000000000000      0x9a6 libzephyr.a(sem.c.obj)
 .comment       0x0000000000000000       0x33 libzephyr.a(sem.c.obj)
 .debug_frame   0x0000000000000000       0x74 libzephyr.a(sem.c.obj)
 .text          0x0000000000000000        0x0 libzephyr.a(thread_entry.c.obj)
 .data          0x0000000000000000        0x0 libzephyr.a(thread_entry.c.obj)
 .bss           0x0000000000000000        0x0 libzephyr.a(thread_entry.c.obj)
 .text          0x0000000000000000        0x0 libzephyr.a(timeutil.c.obj)
 .data          0x0000000000000000        0x0 libzephyr.a(timeutil.c.obj)
 .bss           0x0000000000000000        0x0 libzephyr.a(timeutil.c.obj)
 .text.timeutil_timegm64
                0x0000000000000000      0x108 libzephyr.a(timeutil.c.obj)
 .text.timeutil_timegm
                0x0000000000000000       0x32 libzephyr.a(timeutil.c.obj)
 .debug_info    0x0000000000000000      0x555 libzephyr.a(timeutil.c.obj)
 .debug_abbrev  0x0000000000000000      0x270 libzephyr.a(timeutil.c.obj)
 .debug_loc     0x0000000000000000      0x356 libzephyr.a(timeutil.c.obj)
 .debug_aranges
                0x0000000000000000       0x28 libzephyr.a(timeutil.c.obj)
 .debug_ranges  0x0000000000000000       0x80 libzephyr.a(timeutil.c.obj)
 .debug_line    0x0000000000000000      0x4a5 libzephyr.a(timeutil.c.obj)
 .debug_str     0x0000000000000000      0x3d8 libzephyr.a(timeutil.c.obj)
 .comment       0x0000000000000000       0x33 libzephyr.a(timeutil.c.obj)
 .debug_frame   0x0000000000000000       0x5c libzephyr.a(timeutil.c.obj)
 .text          0x0000000000000000        0x0 libzephyr.a(work_q.c.obj)
 .data          0x0000000000000000        0x0 libzephyr.a(work_q.c.obj)
 .bss           0x0000000000000000        0x0 libzephyr.a(work_q.c.obj)
 .rodata.k_work_q_user_start.str1.1
                0x0000000000000000        0xa libzephyr.a(work_q.c.obj)
 .text.k_work_q_user_start
                0x0000000000000000       0xcc libzephyr.a(work_q.c.obj)
 .text          0x0000000000000000        0x0 libzephyr.a(heap.c.obj)
 .data          0x0000000000000000        0x0 libzephyr.a(heap.c.obj)
 .bss           0x0000000000000000        0x0 libzephyr.a(heap.c.obj)
 .text.sys_heap_aligned_alloc
                0x0000000000000000       0xb0 libzephyr.a(heap.c.obj)
 .text          0x0000000000000000        0x0 libzephyr.a(heap-validate.c.obj)
 .data          0x0000000000000000        0x0 libzephyr.a(heap-validate.c.obj)
 .bss           0x0000000000000000        0x0 libzephyr.a(heap-validate.c.obj)
 .text.chunk_field
                0x0000000000000000       0x16 libzephyr.a(heap-validate.c.obj)
 .text.chunk_size
                0x0000000000000000        0xc libzephyr.a(heap-validate.c.obj)
 .text.set_chunk_used
                0x0000000000000000       0x30 libzephyr.a(heap-validate.c.obj)
 .text.right_chunk
                0x0000000000000000        0xc libzephyr.a(heap-validate.c.obj)
 .text.solo_free_header
                0x0000000000000000       0x1a libzephyr.a(heap-validate.c.obj)
 .text.rand32   0x0000000000000000       0x3c libzephyr.a(heap-validate.c.obj)
 .text.bucket_idx
                0x0000000000000000       0x1a libzephyr.a(heap-validate.c.obj)
 .text.max_chunkid
                0x0000000000000000       0x10 libzephyr.a(heap-validate.c.obj)
 .text.in_bounds
                0x0000000000000000       0x32 libzephyr.a(heap-validate.c.obj)
 .text.valid_chunk
                0x0000000000000000       0xca libzephyr.a(heap-validate.c.obj)
 .text.sys_heap_validate
                0x0000000000000000      0x1a0 libzephyr.a(heap-validate.c.obj)
 .text.sys_heap_stress
                0x0000000000000000      0x108 libzephyr.a(heap-validate.c.obj)
 .rodata.heap_dump.str1.1
                0x0000000000000000       0x63 libzephyr.a(heap-validate.c.obj)
 .text.heap_dump
                0x0000000000000000       0xe0 libzephyr.a(heap-validate.c.obj)
 .text.sys_heap_dump
                0x0000000000000000        0x6 libzephyr.a(heap-validate.c.obj)
 .data.state.8917
                0x0000000000000000        0x8 libzephyr.a(heap-validate.c.obj)
 .debug_info    0x0000000000000000     0x1fff libzephyr.a(heap-validate.c.obj)
 .debug_abbrev  0x0000000000000000      0x4b3 libzephyr.a(heap-validate.c.obj)
 .debug_loc     0x0000000000000000      0xfce libzephyr.a(heap-validate.c.obj)
 .debug_aranges
                0x0000000000000000       0x88 libzephyr.a(heap-validate.c.obj)
 .debug_ranges  0x0000000000000000      0x348 libzephyr.a(heap-validate.c.obj)
 .debug_line    0x0000000000000000      0xe45 libzephyr.a(heap-validate.c.obj)
 .debug_str     0x0000000000000000      0xaf8 libzephyr.a(heap-validate.c.obj)
 .comment       0x0000000000000000       0x33 libzephyr.a(heap-validate.c.obj)
 .debug_frame   0x0000000000000000      0x18c libzephyr.a(heap-validate.c.obj)
 .text          0x0000000000000000        0x0 libzephyr.a(mutex.c.obj)
 .data          0x0000000000000000        0x0 libzephyr.a(mutex.c.obj)
 .bss           0x0000000000000000        0x0 libzephyr.a(mutex.c.obj)
 .text          0x0000000000000000        0x0 libzephyr.a(configs.c.obj)
 .data          0x0000000000000000        0x0 libzephyr.a(configs.c.obj)
 .bss           0x0000000000000000        0x0 libzephyr.a(configs.c.obj)
 .text          0x0000000000000000        0x0 libzephyr.a(validate_base_addresses.c.obj)
 .data          0x0000000000000000        0x0 libzephyr.a(validate_base_addresses.c.obj)
 .bss           0x0000000000000000        0x0 libzephyr.a(validate_base_addresses.c.obj)
 .debug_info    0x0000000000000000      0x948 libzephyr.a(validate_base_addresses.c.obj)
 .debug_abbrev  0x0000000000000000      0x185 libzephyr.a(validate_base_addresses.c.obj)
 .debug_aranges
                0x0000000000000000       0x18 libzephyr.a(validate_base_addresses.c.obj)
 .debug_line    0x0000000000000000      0x341 libzephyr.a(validate_base_addresses.c.obj)
 .debug_str     0x0000000000000000      0x74b libzephyr.a(validate_base_addresses.c.obj)
 .comment       0x0000000000000000       0x33 libzephyr.a(validate_base_addresses.c.obj)
 .text          0x0000000000000000        0x0 libzephyr.a(validate_enabled_instances.c.obj)
 .data          0x0000000000000000        0x0 libzephyr.a(validate_enabled_instances.c.obj)
 .bss           0x0000000000000000        0x0 libzephyr.a(validate_enabled_instances.c.obj)
 .debug_info    0x0000000000000000      0x948 libzephyr.a(validate_enabled_instances.c.obj)
 .debug_abbrev  0x0000000000000000      0x185 libzephyr.a(validate_enabled_instances.c.obj)
 .debug_aranges
                0x0000000000000000       0x18 libzephyr.a(validate_enabled_instances.c.obj)
 .debug_line    0x0000000000000000      0x341 libzephyr.a(validate_enabled_instances.c.obj)
 .debug_str     0x0000000000000000      0x74e libzephyr.a(validate_enabled_instances.c.obj)
 .comment       0x0000000000000000       0x33 libzephyr.a(validate_enabled_instances.c.obj)
 .text          0x0000000000000000        0x0 libzephyr.a(power.c.obj)
 .data          0x0000000000000000        0x0 libzephyr.a(power.c.obj)
 .bss           0x0000000000000000        0x0 libzephyr.a(power.c.obj)
 .text.sys_pm_dump_debug_info
                0x0000000000000000        0x2 libzephyr.a(power.c.obj)
 .text.sys_pm_notify_power_state_entry
                0x0000000000000000        0x2 libzephyr.a(power.c.obj)
 .text.sys_pm_notify_power_state_exit
                0x0000000000000000        0x2 libzephyr.a(power.c.obj)
 .text.sys_pm_force_power_state
                0x0000000000000000        0xc libzephyr.a(power.c.obj)
 .text._sys_suspend
                0x0000000000000000       0x6c libzephyr.a(power.c.obj)
 .text._sys_resume
                0x0000000000000000       0x2c libzephyr.a(power.c.obj)
 .bss.pm_state  0x0000000000000000        0x1 libzephyr.a(power.c.obj)
 .data.forced_pm_state
                0x0000000000000000        0x1 libzephyr.a(power.c.obj)
 .data.post_ops_done
                0x0000000000000000        0x4 libzephyr.a(power.c.obj)
 .debug_info    0x0000000000000000      0xd0a libzephyr.a(power.c.obj)
 .debug_abbrev  0x0000000000000000      0x3b1 libzephyr.a(power.c.obj)
 .debug_loc     0x0000000000000000       0x3a libzephyr.a(power.c.obj)
 .debug_aranges
                0x0000000000000000       0x40 libzephyr.a(power.c.obj)
 .debug_ranges  0x0000000000000000       0x48 libzephyr.a(power.c.obj)
 .debug_line    0x0000000000000000      0x5ef libzephyr.a(power.c.obj)
 .debug_str     0x0000000000000000      0xa7a libzephyr.a(power.c.obj)
 .comment       0x0000000000000000       0x33 libzephyr.a(power.c.obj)
 .debug_frame   0x0000000000000000       0x8c libzephyr.a(power.c.obj)
 .text          0x0000000000000000        0x0 libzephyr.a(policy_residency.c.obj)
 .data          0x0000000000000000        0x0 libzephyr.a(policy_residency.c.obj)
 .bss           0x0000000000000000        0x0 libzephyr.a(policy_residency.c.obj)
 .text.sys_pm_policy_next_state
                0x0000000000000000       0x10 libzephyr.a(policy_residency.c.obj)
 .text.sys_pm_policy_low_power_devices
                0x0000000000000000        0x4 libzephyr.a(policy_residency.c.obj)
 .debug_info    0x0000000000000000      0xc85 libzephyr.a(policy_residency.c.obj)
 .debug_abbrev  0x0000000000000000      0x2d9 libzephyr.a(policy_residency.c.obj)
 .debug_loc     0x0000000000000000       0x5f libzephyr.a(policy_residency.c.obj)
 .debug_aranges
                0x0000000000000000       0x28 libzephyr.a(policy_residency.c.obj)
 .debug_ranges  0x0000000000000000       0x30 libzephyr.a(policy_residency.c.obj)
 .debug_line    0x0000000000000000      0x4cd libzephyr.a(policy_residency.c.obj)
 .debug_str     0x0000000000000000      0x99f libzephyr.a(policy_residency.c.obj)
 .comment       0x0000000000000000       0x33 libzephyr.a(policy_residency.c.obj)
 .debug_frame   0x0000000000000000       0x30 libzephyr.a(policy_residency.c.obj)
 .text          0x0000000000000000        0x0 libzephyr.a(uart_console.c.obj)
 .data          0x0000000000000000        0x0 libzephyr.a(uart_console.c.obj)
 .bss           0x0000000000000000        0x0 libzephyr.a(uart_console.c.obj)
 .text          0x0000000000000000        0x0 libzephyr.a(nrf_power_clock.c.obj)
 .data          0x0000000000000000        0x0 libzephyr.a(nrf_power_clock.c.obj)
 .bss           0x0000000000000000        0x0 libzephyr.a(nrf_power_clock.c.obj)
 .text.z_nrf_clock_control_get_onoff
                0x0000000000000000       0x14 libzephyr.a(nrf_power_clock.c.obj)
 .text.z_nrf_clock_bt_ctlr_hf_request
                0x0000000000000000       0x2c libzephyr.a(nrf_power_clock.c.obj)
 .text.z_nrf_clock_bt_ctlr_hf_release
                0x0000000000000000       0x44 libzephyr.a(nrf_power_clock.c.obj)
 .text          0x0000000000000000        0x0 libzephyr.a(sys_clock_init.c.obj)
 .data          0x0000000000000000        0x0 libzephyr.a(sys_clock_init.c.obj)
 .bss           0x0000000000000000        0x0 libzephyr.a(sys_clock_init.c.obj)
 .text.z_clock_driver_init
                0x0000000000000000        0x4 libzephyr.a(sys_clock_init.c.obj)
 .text.z_clock_device_ctrl
                0x0000000000000000        0x6 libzephyr.a(sys_clock_init.c.obj)
 .text.z_clock_set_timeout
                0x0000000000000000        0x2 libzephyr.a(sys_clock_init.c.obj)
 .text.sys_clock_disable
                0x0000000000000000        0x2 libzephyr.a(sys_clock_init.c.obj)
 .text          0x0000000000000000        0x0 libzephyr.a(nrf_rtc_timer.c.obj)
 .data          0x0000000000000000        0x0 libzephyr.a(nrf_rtc_timer.c.obj)
 .bss           0x0000000000000000        0x0 libzephyr.a(nrf_rtc_timer.c.obj)
 .text.z_timer_cycle_get_32
                0x0000000000000000       0x34 libzephyr.a(nrf_rtc_timer.c.obj)
 .text          0x0000000000000000        0x0 libzephyr.a(SEGGER_RTT.c.obj)
 .data          0x0000000000000000        0x0 libzephyr.a(SEGGER_RTT.c.obj)
 .bss           0x0000000000000000        0x0 libzephyr.a(SEGGER_RTT.c.obj)
 .text._GetAvailWriteSpace
                0x0000000000000000       0x1c libzephyr.a(SEGGER_RTT.c.obj)
 .text._WriteNoCheck
                0x0000000000000000       0x38 libzephyr.a(SEGGER_RTT.c.obj)
 .text._WriteBlocking
                0x0000000000000000       0x52 libzephyr.a(SEGGER_RTT.c.obj)
 .text._PostTerminalSwitch.constprop.0
                0x0000000000000000       0x28 libzephyr.a(SEGGER_RTT.c.obj)
 .text.k_mutex_lock.constprop.0
                0x0000000000000000       0x34 libzephyr.a(SEGGER_RTT.c.obj)
 .text.k_mutex_unlock.constprop.0
                0x0000000000000000       0x2c libzephyr.a(SEGGER_RTT.c.obj)
 .text.SEGGER_RTT_ReadNoLock
                0x0000000000000000       0x90 libzephyr.a(SEGGER_RTT.c.obj)
 .text.SEGGER_RTT_Read
                0x0000000000000000       0x28 libzephyr.a(SEGGER_RTT.c.obj)
 .text.SEGGER_RTT_WriteWithOverwriteNoLock
                0x0000000000000000       0xb8 libzephyr.a(SEGGER_RTT.c.obj)
 .text.SEGGER_RTT_WriteSkipNoLock
                0x0000000000000000       0x98 libzephyr.a(SEGGER_RTT.c.obj)
 .text.SEGGER_RTT_WriteNoLock
                0x0000000000000000       0x68 libzephyr.a(SEGGER_RTT.c.obj)
 .text.SEGGER_RTT_Write
                0x0000000000000000       0x38 libzephyr.a(SEGGER_RTT.c.obj)
 .text.SEGGER_RTT_WriteString
                0x0000000000000000       0x1a libzephyr.a(SEGGER_RTT.c.obj)
 .text.SEGGER_RTT_PutCharSkipNoLock
                0x0000000000000000       0x34 libzephyr.a(SEGGER_RTT.c.obj)
 .text.SEGGER_RTT_PutCharSkip
                0x0000000000000000       0x54 libzephyr.a(SEGGER_RTT.c.obj)
 .text.SEGGER_RTT_PutChar
                0x0000000000000000       0x64 libzephyr.a(SEGGER_RTT.c.obj)
 .text.SEGGER_RTT_GetKey
                0x0000000000000000       0x20 libzephyr.a(SEGGER_RTT.c.obj)
 .text.SEGGER_RTT_WaitKey
                0x0000000000000000        0xc libzephyr.a(SEGGER_RTT.c.obj)
 .text.SEGGER_RTT_HasKey
                0x0000000000000000       0x1c libzephyr.a(SEGGER_RTT.c.obj)
 .text.SEGGER_RTT_HasData
                0x0000000000000000       0x14 libzephyr.a(SEGGER_RTT.c.obj)
 .text.SEGGER_RTT_HasDataUp
                0x0000000000000000       0x14 libzephyr.a(SEGGER_RTT.c.obj)
 .text.SEGGER_RTT_AllocDownBuffer
                0x0000000000000000       0x64 libzephyr.a(SEGGER_RTT.c.obj)
 .text.SEGGER_RTT_AllocUpBuffer
                0x0000000000000000       0x6c libzephyr.a(SEGGER_RTT.c.obj)
 .text.SEGGER_RTT_ConfigUpBuffer
                0x0000000000000000       0x60 libzephyr.a(SEGGER_RTT.c.obj)
 .text.SEGGER_RTT_ConfigDownBuffer
                0x0000000000000000       0x54 libzephyr.a(SEGGER_RTT.c.obj)
 .text.SEGGER_RTT_SetNameUpBuffer
                0x0000000000000000       0x38 libzephyr.a(SEGGER_RTT.c.obj)
 .text.SEGGER_RTT_SetNameDownBuffer
                0x0000000000000000       0x38 libzephyr.a(SEGGER_RTT.c.obj)
 .text.SEGGER_RTT_SetFlagsUpBuffer
                0x0000000000000000       0x38 libzephyr.a(SEGGER_RTT.c.obj)
 .text.SEGGER_RTT_SetFlagsDownBuffer
                0x0000000000000000       0x38 libzephyr.a(SEGGER_RTT.c.obj)
 .text.SEGGER_RTT_SetTerminal
                0x0000000000000000       0x84 libzephyr.a(SEGGER_RTT.c.obj)
 .text.SEGGER_RTT_TerminalOut
                0x0000000000000000       0x9c libzephyr.a(SEGGER_RTT.c.obj)
 .bss._ActiveTerminal
                0x0000000000000000        0x1 libzephyr.a(SEGGER_RTT.c.obj)
 .rodata._aTerminalId
                0x0000000000000000       0x10 libzephyr.a(SEGGER_RTT.c.obj)
 .text          0x0000000000000000        0x0 libzephyr.a(SEGGER_RTT_zephyr.c.obj)
 .data          0x0000000000000000        0x0 libzephyr.a(SEGGER_RTT_zephyr.c.obj)
 .bss           0x0000000000000000        0x0 libzephyr.a(SEGGER_RTT_zephyr.c.obj)
 .text          0x0000000000000000        0x0 arch/common/libarch__common.a(isr_tables.c.obj)
 .data          0x0000000000000000        0x0 arch/common/libarch__common.a(isr_tables.c.obj)
 .bss           0x0000000000000000        0x0 arch/common/libarch__common.a(isr_tables.c.obj)
 .text          0x0000000000000000        0x0 arch/common/libarch__common.a(sw_isr_common.c.obj)
 .data          0x0000000000000000        0x0 arch/common/libarch__common.a(sw_isr_common.c.obj)
 .bss           0x0000000000000000        0x0 arch/common/libarch__common.a(sw_isr_common.c.obj)
 .debug_info    0x0000000000000000      0x19e arch/common/libarch__common.a(sw_isr_common.c.obj)
 .debug_abbrev  0x0000000000000000       0xca arch/common/libarch__common.a(sw_isr_common.c.obj)
 .debug_aranges
                0x0000000000000000       0x18 arch/common/libarch__common.a(sw_isr_common.c.obj)
 .debug_line    0x0000000000000000      0x1bb arch/common/libarch__common.a(sw_isr_common.c.obj)
 .debug_str     0x0000000000000000      0x2e0 arch/common/libarch__common.a(sw_isr_common.c.obj)
 .comment       0x0000000000000000       0x33 arch/common/libarch__common.a(sw_isr_common.c.obj)
 .text          0x0000000000000000        0x0 arch/arch/arm/core/aarch32/libarch__arm__core__aarch32.a(swap.c.obj)
 .data          0x0000000000000000        0x0 arch/arch/arm/core/aarch32/libarch__arm__core__aarch32.a(swap.c.obj)
 .bss           0x0000000000000000        0x0 arch/arch/arm/core/aarch32/libarch__arm__core__aarch32.a(swap.c.obj)
 .text          0x0000000000000000        0x0 arch/arch/arm/core/aarch32/libarch__arm__core__aarch32.a(swap_helper.S.obj)
 .data          0x0000000000000000        0x0 arch/arch/arm/core/aarch32/libarch__arm__core__aarch32.a(swap_helper.S.obj)
 .bss           0x0000000000000000        0x0 arch/arch/arm/core/aarch32/libarch__arm__core__aarch32.a(swap_helper.S.obj)
 .text          0x0000000000000000        0x0 arch/arch/arm/core/aarch32/libarch__arm__core__aarch32.a(irq_manage.c.obj)
 .data          0x0000000000000000        0x0 arch/arch/arm/core/aarch32/libarch__arm__core__aarch32.a(irq_manage.c.obj)
 .bss           0x0000000000000000        0x0 arch/arch/arm/core/aarch32/libarch__arm__core__aarch32.a(irq_manage.c.obj)
 .text.arch_irq_disable
                0x0000000000000000       0x28 arch/arch/arm/core/aarch32/libarch__arm__core__aarch32.a(irq_manage.c.obj)
 .text.arch_irq_is_enabled
                0x0000000000000000       0x1c arch/arch/arm/core/aarch32/libarch__arm__core__aarch32.a(irq_manage.c.obj)
 .text._arch_isr_direct_pm
                0x0000000000000000       0x1c arch/arch/arm/core/aarch32/libarch__arm__core__aarch32.a(irq_manage.c.obj)
 .text          0x0000000000000000        0x0 arch/arch/arm/core/aarch32/libarch__arm__core__aarch32.a(thread.c.obj)
 .data          0x0000000000000000        0x0 arch/arch/arm/core/aarch32/libarch__arm__core__aarch32.a(thread.c.obj)
 .bss           0x0000000000000000        0x0 arch/arch/arm/core/aarch32/libarch__arm__core__aarch32.a(thread.c.obj)
 .text          0x0000000000000000        0x0 arch/arch/arm/core/aarch32/libarch__arm__core__aarch32.a(cpu_idle.S.obj)
 .data          0x0000000000000000        0x0 arch/arch/arm/core/aarch32/libarch__arm__core__aarch32.a(cpu_idle.S.obj)
 .bss           0x0000000000000000        0x0 arch/arch/arm/core/aarch32/libarch__arm__core__aarch32.a(cpu_idle.S.obj)
 .text.arch_cpu_atomic_idle
                0x0000000000000000       0x14 arch/arch/arm/core/aarch32/libarch__arm__core__aarch32.a(cpu_idle.S.obj)
 .text          0x0000000000000000        0x0 arch/arch/arm/core/aarch32/libarch__arm__core__aarch32.a(fatal.c.obj)
 .data          0x0000000000000000        0x0 arch/arch/arm/core/aarch32/libarch__arm__core__aarch32.a(fatal.c.obj)
 .bss           0x0000000000000000        0x0 arch/arch/arm/core/aarch32/libarch__arm__core__aarch32.a(fatal.c.obj)
 .text          0x0000000000000000        0x0 arch/arch/arm/core/aarch32/libarch__arm__core__aarch32.a(nmi.c.obj)
 .data          0x0000000000000000        0x0 arch/arch/arm/core/aarch32/libarch__arm__core__aarch32.a(nmi.c.obj)
 .bss           0x0000000000000000        0x0 arch/arch/arm/core/aarch32/libarch__arm__core__aarch32.a(nmi.c.obj)
 .text          0x0000000000000000        0x0 arch/arch/arm/core/aarch32/libarch__arm__core__aarch32.a(nmi_on_reset.S.obj)
 .data          0x0000000000000000        0x0 arch/arch/arm/core/aarch32/libarch__arm__core__aarch32.a(nmi_on_reset.S.obj)
 .bss           0x0000000000000000        0x0 arch/arch/arm/core/aarch32/libarch__arm__core__aarch32.a(nmi_on_reset.S.obj)
 .text          0x0000000000000000        0x0 arch/arch/arm/core/aarch32/libarch__arm__core__aarch32.a(prep_c.c.obj)
 .data          0x0000000000000000        0x0 arch/arch/arm/core/aarch32/libarch__arm__core__aarch32.a(prep_c.c.obj)
 .bss           0x0000000000000000        0x0 arch/arch/arm/core/aarch32/libarch__arm__core__aarch32.a(prep_c.c.obj)
 .text          0x0000000000000000        0x0 arch/arch/arm/core/aarch32/libarch__arm__core__aarch32.a(isr_wrapper.S.obj)
 .data          0x0000000000000000        0x0 arch/arch/arm/core/aarch32/libarch__arm__core__aarch32.a(isr_wrapper.S.obj)
 .bss           0x0000000000000000        0x0 arch/arch/arm/core/aarch32/libarch__arm__core__aarch32.a(isr_wrapper.S.obj)
 .text          0x0000000000000000        0x0 arch/arch/arm/core/aarch32/libarch__arm__core__aarch32.a(userspace.S.obj)
 .data          0x0000000000000000        0x0 arch/arch/arm/core/aarch32/libarch__arm__core__aarch32.a(userspace.S.obj)
 .bss           0x0000000000000000        0x0 arch/arch/arm/core/aarch32/libarch__arm__core__aarch32.a(userspace.S.obj)
 .text          0x0000000000000000        0x0 arch/arch/arm/core/aarch32/cortex_m/libarch__arm__core__aarch32__cortex_m.a(vector_table.S.obj)
 .data          0x0000000000000000        0x0 arch/arch/arm/core/aarch32/cortex_m/libarch__arm__core__aarch32__cortex_m.a(vector_table.S.obj)
 .bss           0x0000000000000000        0x0 arch/arch/arm/core/aarch32/cortex_m/libarch__arm__core__aarch32__cortex_m.a(vector_table.S.obj)
 .text          0x0000000000000000        0x0 arch/arch/arm/core/aarch32/cortex_m/libarch__arm__core__aarch32__cortex_m.a(reset.S.obj)
 .data          0x0000000000000000        0x0 arch/arch/arm/core/aarch32/cortex_m/libarch__arm__core__aarch32__cortex_m.a(reset.S.obj)
 .bss           0x0000000000000000        0x0 arch/arch/arm/core/aarch32/cortex_m/libarch__arm__core__aarch32__cortex_m.a(reset.S.obj)
 .text          0x0000000000000000        0x0 arch/arch/arm/core/aarch32/cortex_m/libarch__arm__core__aarch32__cortex_m.a(fault_s.S.obj)
 .data          0x0000000000000000        0x0 arch/arch/arm/core/aarch32/cortex_m/libarch__arm__core__aarch32__cortex_m.a(fault_s.S.obj)
 .bss           0x0000000000000000        0x0 arch/arch/arm/core/aarch32/cortex_m/libarch__arm__core__aarch32__cortex_m.a(fault_s.S.obj)
 .text          0x0000000000000000        0x0 arch/arch/arm/core/aarch32/cortex_m/libarch__arm__core__aarch32__cortex_m.a(fault.c.obj)
 .data          0x0000000000000000        0x0 arch/arch/arm/core/aarch32/cortex_m/libarch__arm__core__aarch32__cortex_m.a(fault.c.obj)
 .bss           0x0000000000000000        0x0 arch/arch/arm/core/aarch32/cortex_m/libarch__arm__core__aarch32__cortex_m.a(fault.c.obj)
 .text          0x0000000000000000        0x0 arch/arch/arm/core/aarch32/cortex_m/libarch__arm__core__aarch32__cortex_m.a(exc_exit.S.obj)
 .data          0x0000000000000000        0x0 arch/arch/arm/core/aarch32/cortex_m/libarch__arm__core__aarch32__cortex_m.a(exc_exit.S.obj)
 .bss           0x0000000000000000        0x0 arch/arch/arm/core/aarch32/cortex_m/libarch__arm__core__aarch32__cortex_m.a(exc_exit.S.obj)
 .text          0x0000000000000000        0x0 arch/arch/arm/core/aarch32/cortex_m/libarch__arm__core__aarch32__cortex_m.a(scb.c.obj)
 .data          0x0000000000000000        0x0 arch/arch/arm/core/aarch32/cortex_m/libarch__arm__core__aarch32__cortex_m.a(scb.c.obj)
 .bss           0x0000000000000000        0x0 arch/arch/arm/core/aarch32/cortex_m/libarch__arm__core__aarch32__cortex_m.a(scb.c.obj)
 .text.sys_arch_reboot
                0x0000000000000000       0x24 arch/arch/arm/core/aarch32/cortex_m/libarch__arm__core__aarch32__cortex_m.a(scb.c.obj)
 .debug_info    0x0000000000000000      0xb8f arch/arch/arm/core/aarch32/cortex_m/libarch__arm__core__aarch32__cortex_m.a(scb.c.obj)
 .debug_abbrev  0x0000000000000000      0x220 arch/arch/arm/core/aarch32/cortex_m/libarch__arm__core__aarch32__cortex_m.a(scb.c.obj)
 .debug_aranges
                0x0000000000000000       0x20 arch/arch/arm/core/aarch32/cortex_m/libarch__arm__core__aarch32__cortex_m.a(scb.c.obj)
 .debug_ranges  0x0000000000000000       0x10 arch/arch/arm/core/aarch32/cortex_m/libarch__arm__core__aarch32__cortex_m.a(scb.c.obj)
 .debug_line    0x0000000000000000      0x3ff arch/arch/arm/core/aarch32/cortex_m/libarch__arm__core__aarch32__cortex_m.a(scb.c.obj)
 .debug_str     0x0000000000000000      0x7f3 arch/arch/arm/core/aarch32/cortex_m/libarch__arm__core__aarch32__cortex_m.a(scb.c.obj)
 .comment       0x0000000000000000       0x33 arch/arch/arm/core/aarch32/cortex_m/libarch__arm__core__aarch32__cortex_m.a(scb.c.obj)
 .debug_frame   0x0000000000000000       0x20 arch/arch/arm/core/aarch32/cortex_m/libarch__arm__core__aarch32__cortex_m.a(scb.c.obj)
 .text          0x0000000000000000        0x0 arch/arch/arm/core/aarch32/cortex_m/libarch__arm__core__aarch32__cortex_m.a(irq_init.c.obj)
 .data          0x0000000000000000        0x0 arch/arch/arm/core/aarch32/cortex_m/libarch__arm__core__aarch32__cortex_m.a(irq_init.c.obj)
 .bss           0x0000000000000000        0x0 arch/arch/arm/core/aarch32/cortex_m/libarch__arm__core__aarch32__cortex_m.a(irq_init.c.obj)
 .text          0x0000000000000000        0x0 arch/arch/arm/core/aarch32/cortex_m/libarch__arm__core__aarch32__cortex_m.a(thread_abort.c.obj)
 .data          0x0000000000000000        0x0 arch/arch/arm/core/aarch32/cortex_m/libarch__arm__core__aarch32__cortex_m.a(thread_abort.c.obj)
 .bss           0x0000000000000000        0x0 arch/arch/arm/core/aarch32/cortex_m/libarch__arm__core__aarch32__cortex_m.a(thread_abort.c.obj)
 .text          0x0000000000000000        0x0 arch/arch/arm/core/aarch32/cortex_m/mpu/libarch__arm__core__aarch32__cortex_m__mpu.a(arm_core_mpu.c.obj)
 .data          0x0000000000000000        0x0 arch/arch/arm/core/aarch32/cortex_m/mpu/libarch__arm__core__aarch32__cortex_m__mpu.a(arm_core_mpu.c.obj)
 .bss           0x0000000000000000        0x0 arch/arch/arm/core/aarch32/cortex_m/mpu/libarch__arm__core__aarch32__cortex_m__mpu.a(arm_core_mpu.c.obj)
 .text.arch_mem_domain_destroy
                0x0000000000000000       0x44 arch/arch/arm/core/aarch32/cortex_m/mpu/libarch__arm__core__aarch32__cortex_m__mpu.a(arm_core_mpu.c.obj)
 .text.arch_mem_domain_partition_remove
                0x0000000000000000       0x2c arch/arch/arm/core/aarch32/cortex_m/mpu/libarch__arm__core__aarch32__cortex_m__mpu.a(arm_core_mpu.c.obj)
 .text.arch_mem_domain_partition_add
                0x0000000000000000        0x2 arch/arch/arm/core/aarch32/cortex_m/mpu/libarch__arm__core__aarch32__cortex_m__mpu.a(arm_core_mpu.c.obj)
 .text.arch_mem_domain_thread_remove
                0x0000000000000000       0x14 arch/arch/arm/core/aarch32/cortex_m/mpu/libarch__arm__core__aarch32__cortex_m__mpu.a(arm_core_mpu.c.obj)
 .text          0x0000000000000000        0x0 arch/arch/arm/core/aarch32/cortex_m/mpu/libarch__arm__core__aarch32__cortex_m__mpu.a(arm_mpu.c.obj)
 .data          0x0000000000000000        0x0 arch/arch/arm/core/aarch32/cortex_m/mpu/libarch__arm__core__aarch32__cortex_m__mpu.a(arm_mpu.c.obj)
 .bss           0x0000000000000000        0x0 arch/arch/arm/core/aarch32/cortex_m/mpu/libarch__arm__core__aarch32__cortex_m__mpu.a(arm_mpu.c.obj)
 .text.arm_core_mpu_mem_partition_config_update
                0x0000000000000000       0x60 arch/arch/arm/core/aarch32/cortex_m/mpu/libarch__arm__core__aarch32__cortex_m__mpu.a(arm_mpu.c.obj)
 .text          0x0000000000000000        0x0 lib/libc/minimal/liblib__libc__minimal.a(atoi.c.obj)
 .data          0x0000000000000000        0x0 lib/libc/minimal/liblib__libc__minimal.a(atoi.c.obj)
 .bss           0x0000000000000000        0x0 lib/libc/minimal/liblib__libc__minimal.a(atoi.c.obj)
 .text.atoi     0x0000000000000000       0x4c lib/libc/minimal/liblib__libc__minimal.a(atoi.c.obj)
 .debug_info    0x0000000000000000      0x10d lib/libc/minimal/liblib__libc__minimal.a(atoi.c.obj)
 .debug_abbrev  0x0000000000000000      0x100 lib/libc/minimal/liblib__libc__minimal.a(atoi.c.obj)
 .debug_loc     0x0000000000000000       0xab lib/libc/minimal/liblib__libc__minimal.a(atoi.c.obj)
 .debug_aranges
                0x0000000000000000       0x20 lib/libc/minimal/liblib__libc__minimal.a(atoi.c.obj)
 .debug_ranges  0x0000000000000000       0x28 lib/libc/minimal/liblib__libc__minimal.a(atoi.c.obj)
 .debug_line    0x0000000000000000      0x177 lib/libc/minimal/liblib__libc__minimal.a(atoi.c.obj)
 .debug_str     0x0000000000000000      0x1c1 lib/libc/minimal/liblib__libc__minimal.a(atoi.c.obj)
 .comment       0x0000000000000000       0x33 lib/libc/minimal/liblib__libc__minimal.a(atoi.c.obj)
 .debug_frame   0x0000000000000000       0x2c lib/libc/minimal/liblib__libc__minimal.a(atoi.c.obj)
 .text          0x0000000000000000        0x0 lib/libc/minimal/liblib__libc__minimal.a(strtol.c.obj)
 .data          0x0000000000000000        0x0 lib/libc/minimal/liblib__libc__minimal.a(strtol.c.obj)
 .bss           0x0000000000000000        0x0 lib/libc/minimal/liblib__libc__minimal.a(strtol.c.obj)
 .text.strtol   0x0000000000000000      0x112 lib/libc/minimal/liblib__libc__minimal.a(strtol.c.obj)
 .debug_info    0x0000000000000000      0x4da lib/libc/minimal/liblib__libc__minimal.a(strtol.c.obj)
 .debug_abbrev  0x0000000000000000      0x20d lib/libc/minimal/liblib__libc__minimal.a(strtol.c.obj)
 .debug_loc     0x0000000000000000      0x47f lib/libc/minimal/liblib__libc__minimal.a(strtol.c.obj)
 .debug_aranges
                0x0000000000000000       0x20 lib/libc/minimal/liblib__libc__minimal.a(strtol.c.obj)
 .debug_ranges  0x0000000000000000       0x28 lib/libc/minimal/liblib__libc__minimal.a(strtol.c.obj)
 .debug_line    0x0000000000000000      0x560 lib/libc/minimal/liblib__libc__minimal.a(strtol.c.obj)
 .debug_str     0x0000000000000000      0x3a0 lib/libc/minimal/liblib__libc__minimal.a(strtol.c.obj)
 .comment       0x0000000000000000       0x33 lib/libc/minimal/liblib__libc__minimal.a(strtol.c.obj)
 .debug_frame   0x0000000000000000       0x34 lib/libc/minimal/liblib__libc__minimal.a(strtol.c.obj)
 .text          0x0000000000000000        0x0 lib/libc/minimal/liblib__libc__minimal.a(strtoul.c.obj)
 .data          0x0000000000000000        0x0 lib/libc/minimal/liblib__libc__minimal.a(strtoul.c.obj)
 .bss           0x0000000000000000        0x0 lib/libc/minimal/liblib__libc__minimal.a(strtoul.c.obj)
 .text.strtoul  0x0000000000000000      0x116 lib/libc/minimal/liblib__libc__minimal.a(strtoul.c.obj)
 .debug_info    0x0000000000000000      0x4da lib/libc/minimal/liblib__libc__minimal.a(strtoul.c.obj)
 .debug_abbrev  0x0000000000000000      0x20d lib/libc/minimal/liblib__libc__minimal.a(strtoul.c.obj)
 .debug_loc     0x0000000000000000      0x452 lib/libc/minimal/liblib__libc__minimal.a(strtoul.c.obj)
 .debug_aranges
                0x0000000000000000       0x20 lib/libc/minimal/liblib__libc__minimal.a(strtoul.c.obj)
 .debug_ranges  0x0000000000000000       0x28 lib/libc/minimal/liblib__libc__minimal.a(strtoul.c.obj)
 .debug_line    0x0000000000000000      0x55c lib/libc/minimal/liblib__libc__minimal.a(strtoul.c.obj)
 .debug_str     0x0000000000000000      0x3a2 lib/libc/minimal/liblib__libc__minimal.a(strtoul.c.obj)
 .comment       0x0000000000000000       0x33 lib/libc/minimal/liblib__libc__minimal.a(strtoul.c.obj)
 .debug_frame   0x0000000000000000       0x34 lib/libc/minimal/liblib__libc__minimal.a(strtoul.c.obj)
 .text          0x0000000000000000        0x0 lib/libc/minimal/liblib__libc__minimal.a(malloc.c.obj)
 .data          0x0000000000000000        0x0 lib/libc/minimal/liblib__libc__minimal.a(malloc.c.obj)
 .bss           0x0000000000000000        0x0 lib/libc/minimal/liblib__libc__minimal.a(malloc.c.obj)
 .text.z_errno  0x0000000000000000       0x26 lib/libc/minimal/liblib__libc__minimal.a(malloc.c.obj)
 .text.malloc   0x0000000000000000       0x18 lib/libc/minimal/liblib__libc__minimal.a(malloc.c.obj)
 .text.realloc  0x0000000000000000       0x40 lib/libc/minimal/liblib__libc__minimal.a(malloc.c.obj)
 .text.free     0x0000000000000000        0x4 lib/libc/minimal/liblib__libc__minimal.a(malloc.c.obj)
 .text.calloc   0x0000000000000000       0x2c lib/libc/minimal/liblib__libc__minimal.a(malloc.c.obj)
 .text.reallocarray
                0x0000000000000000       0x1e lib/libc/minimal/liblib__libc__minimal.a(malloc.c.obj)
 .debug_info    0x0000000000000000     0x1155 lib/libc/minimal/liblib__libc__minimal.a(malloc.c.obj)
 .debug_abbrev  0x0000000000000000      0x3ac lib/libc/minimal/liblib__libc__minimal.a(malloc.c.obj)
 .debug_loc     0x0000000000000000      0x472 lib/libc/minimal/liblib__libc__minimal.a(malloc.c.obj)
 .debug_aranges
                0x0000000000000000       0x48 lib/libc/minimal/liblib__libc__minimal.a(malloc.c.obj)
 .debug_ranges  0x0000000000000000       0xb8 lib/libc/minimal/liblib__libc__minimal.a(malloc.c.obj)
 .debug_line    0x0000000000000000      0x732 lib/libc/minimal/liblib__libc__minimal.a(malloc.c.obj)
 .debug_str     0x0000000000000000      0xbf1 lib/libc/minimal/liblib__libc__minimal.a(malloc.c.obj)
 .comment       0x0000000000000000       0x33 lib/libc/minimal/liblib__libc__minimal.a(malloc.c.obj)
 .debug_frame   0x0000000000000000       0xc0 lib/libc/minimal/liblib__libc__minimal.a(malloc.c.obj)
 .text          0x0000000000000000        0x0 lib/libc/minimal/liblib__libc__minimal.a(bsearch.c.obj)
 .data          0x0000000000000000        0x0 lib/libc/minimal/liblib__libc__minimal.a(bsearch.c.obj)
 .bss           0x0000000000000000        0x0 lib/libc/minimal/liblib__libc__minimal.a(bsearch.c.obj)
 .text.bsearch  0x0000000000000000       0x3c lib/libc/minimal/liblib__libc__minimal.a(bsearch.c.obj)
 .debug_info    0x0000000000000000      0x16a lib/libc/minimal/liblib__libc__minimal.a(bsearch.c.obj)
 .debug_abbrev  0x0000000000000000       0xea lib/libc/minimal/liblib__libc__minimal.a(bsearch.c.obj)
 .debug_loc     0x0000000000000000      0x133 lib/libc/minimal/liblib__libc__minimal.a(bsearch.c.obj)
 .debug_aranges
                0x0000000000000000       0x20 lib/libc/minimal/liblib__libc__minimal.a(bsearch.c.obj)
 .debug_ranges  0x0000000000000000       0x10 lib/libc/minimal/liblib__libc__minimal.a(bsearch.c.obj)
 .debug_line    0x0000000000000000      0x199 lib/libc/minimal/liblib__libc__minimal.a(bsearch.c.obj)
 .debug_str     0x0000000000000000      0x1e7 lib/libc/minimal/liblib__libc__minimal.a(bsearch.c.obj)
 .comment       0x0000000000000000       0x33 lib/libc/minimal/liblib__libc__minimal.a(bsearch.c.obj)
 .debug_frame   0x0000000000000000       0x38 lib/libc/minimal/liblib__libc__minimal.a(bsearch.c.obj)
 .text          0x0000000000000000        0x0 lib/libc/minimal/liblib__libc__minimal.a(exit.c.obj)
 .data          0x0000000000000000        0x0 lib/libc/minimal/liblib__libc__minimal.a(exit.c.obj)
 .bss           0x0000000000000000        0x0 lib/libc/minimal/liblib__libc__minimal.a(exit.c.obj)
 .rodata._exit.str1.1
                0x0000000000000000        0x6 lib/libc/minimal/liblib__libc__minimal.a(exit.c.obj)
 .text._exit    0x0000000000000000       0x10 lib/libc/minimal/liblib__libc__minimal.a(exit.c.obj)
 .debug_info    0x0000000000000000      0x99e lib/libc/minimal/liblib__libc__minimal.a(exit.c.obj)
 .debug_abbrev  0x0000000000000000      0x1dc lib/libc/minimal/liblib__libc__minimal.a(exit.c.obj)
 .debug_loc     0x0000000000000000       0x25 lib/libc/minimal/liblib__libc__minimal.a(exit.c.obj)
 .debug_aranges
                0x0000000000000000       0x20 lib/libc/minimal/liblib__libc__minimal.a(exit.c.obj)
 .debug_ranges  0x0000000000000000       0x10 lib/libc/minimal/liblib__libc__minimal.a(exit.c.obj)
 .debug_line    0x0000000000000000      0x3d8 lib/libc/minimal/liblib__libc__minimal.a(exit.c.obj)
 .debug_str     0x0000000000000000      0x769 lib/libc/minimal/liblib__libc__minimal.a(exit.c.obj)
 .comment       0x0000000000000000       0x33 lib/libc/minimal/liblib__libc__minimal.a(exit.c.obj)
 .debug_frame   0x0000000000000000       0x28 lib/libc/minimal/liblib__libc__minimal.a(exit.c.obj)
 .text          0x0000000000000000        0x0 lib/libc/minimal/liblib__libc__minimal.a(strncasecmp.c.obj)
 .data          0x0000000000000000        0x0 lib/libc/minimal/liblib__libc__minimal.a(strncasecmp.c.obj)
 .bss           0x0000000000000000        0x0 lib/libc/minimal/liblib__libc__minimal.a(strncasecmp.c.obj)
 .text.strncasecmp
                0x0000000000000000       0x4c lib/libc/minimal/liblib__libc__minimal.a(strncasecmp.c.obj)
 .debug_info    0x0000000000000000      0x150 lib/libc/minimal/liblib__libc__minimal.a(strncasecmp.c.obj)
 .debug_abbrev  0x0000000000000000      0x106 lib/libc/minimal/liblib__libc__minimal.a(strncasecmp.c.obj)
 .debug_loc     0x0000000000000000      0x164 lib/libc/minimal/liblib__libc__minimal.a(strncasecmp.c.obj)
 .debug_aranges
                0x0000000000000000       0x20 lib/libc/minimal/liblib__libc__minimal.a(strncasecmp.c.obj)
 .debug_ranges  0x0000000000000000       0x28 lib/libc/minimal/liblib__libc__minimal.a(strncasecmp.c.obj)
 .debug_line    0x0000000000000000      0x1de lib/libc/minimal/liblib__libc__minimal.a(strncasecmp.c.obj)
 .debug_str     0x0000000000000000      0x1ea lib/libc/minimal/liblib__libc__minimal.a(strncasecmp.c.obj)
 .comment       0x0000000000000000       0x33 lib/libc/minimal/liblib__libc__minimal.a(strncasecmp.c.obj)
 .debug_frame   0x0000000000000000       0x2c lib/libc/minimal/liblib__libc__minimal.a(strncasecmp.c.obj)
 .text          0x0000000000000000        0x0 lib/libc/minimal/liblib__libc__minimal.a(strstr.c.obj)
 .data          0x0000000000000000        0x0 lib/libc/minimal/liblib__libc__minimal.a(strstr.c.obj)
 .bss           0x0000000000000000        0x0 lib/libc/minimal/liblib__libc__minimal.a(strstr.c.obj)
 .text.strstr   0x0000000000000000       0x40 lib/libc/minimal/liblib__libc__minimal.a(strstr.c.obj)
 .debug_info    0x0000000000000000      0x11a lib/libc/minimal/liblib__libc__minimal.a(strstr.c.obj)
 .debug_abbrev  0x0000000000000000       0xda lib/libc/minimal/liblib__libc__minimal.a(strstr.c.obj)
 .debug_loc     0x0000000000000000       0xf4 lib/libc/minimal/liblib__libc__minimal.a(strstr.c.obj)
 .debug_aranges
                0x0000000000000000       0x20 lib/libc/minimal/liblib__libc__minimal.a(strstr.c.obj)
 .debug_ranges  0x0000000000000000       0x10 lib/libc/minimal/liblib__libc__minimal.a(strstr.c.obj)
 .debug_line    0x0000000000000000      0x199 lib/libc/minimal/liblib__libc__minimal.a(strstr.c.obj)
 .debug_str     0x0000000000000000      0x1d0 lib/libc/minimal/liblib__libc__minimal.a(strstr.c.obj)
 .comment       0x0000000000000000       0x33 lib/libc/minimal/liblib__libc__minimal.a(strstr.c.obj)
 .debug_frame   0x0000000000000000       0x30 lib/libc/minimal/liblib__libc__minimal.a(strstr.c.obj)
 .text          0x0000000000000000        0x0 lib/libc/minimal/liblib__libc__minimal.a(string.c.obj)
 .data          0x0000000000000000        0x0 lib/libc/minimal/liblib__libc__minimal.a(string.c.obj)
 .bss           0x0000000000000000        0x0 lib/libc/minimal/liblib__libc__minimal.a(string.c.obj)
 .text.strncpy  0x0000000000000000       0x26 lib/libc/minimal/liblib__libc__minimal.a(string.c.obj)
 .text.strchr   0x0000000000000000       0x1c lib/libc/minimal/liblib__libc__minimal.a(string.c.obj)
 .text.strrchr  0x0000000000000000       0x1a lib/libc/minimal/liblib__libc__minimal.a(string.c.obj)
 .text.strlen   0x0000000000000000        0xe lib/libc/minimal/liblib__libc__minimal.a(string.c.obj)
 .text.strnlen  0x0000000000000000       0x12 lib/libc/minimal/liblib__libc__minimal.a(string.c.obj)
 .text.strncmp  0x0000000000000000       0x1e lib/libc/minimal/liblib__libc__minimal.a(string.c.obj)
 .text.strcat   0x0000000000000000       0x12 lib/libc/minimal/liblib__libc__minimal.a(string.c.obj)
 .text.strncat  0x0000000000000000       0x28 lib/libc/minimal/liblib__libc__minimal.a(string.c.obj)
 .text.memcmp   0x0000000000000000       0x20 lib/libc/minimal/liblib__libc__minimal.a(string.c.obj)
 .text.memmove  0x0000000000000000       0x2e lib/libc/minimal/liblib__libc__minimal.a(string.c.obj)
 .text.memchr   0x0000000000000000       0x20 lib/libc/minimal/liblib__libc__minimal.a(string.c.obj)
 .text          0x0000000000000000        0x0 lib/libc/minimal/liblib__libc__minimal.a(strspn.c.obj)
 .data          0x0000000000000000        0x0 lib/libc/minimal/liblib__libc__minimal.a(strspn.c.obj)
 .bss           0x0000000000000000        0x0 lib/libc/minimal/liblib__libc__minimal.a(strspn.c.obj)
 .text.strspn   0x0000000000000000       0x20 lib/libc/minimal/liblib__libc__minimal.a(strspn.c.obj)
 .text.strcspn  0x0000000000000000       0x20 lib/libc/minimal/liblib__libc__minimal.a(strspn.c.obj)
 .debug_info    0x0000000000000000      0x128 lib/libc/minimal/liblib__libc__minimal.a(strspn.c.obj)
 .debug_abbrev  0x0000000000000000       0xcd lib/libc/minimal/liblib__libc__minimal.a(strspn.c.obj)
 .debug_loc     0x0000000000000000       0xcc lib/libc/minimal/liblib__libc__minimal.a(strspn.c.obj)
 .debug_aranges
                0x0000000000000000       0x28 lib/libc/minimal/liblib__libc__minimal.a(strspn.c.obj)
 .debug_ranges  0x0000000000000000       0x18 lib/libc/minimal/liblib__libc__minimal.a(strspn.c.obj)
 .debug_line    0x0000000000000000      0x1ac lib/libc/minimal/liblib__libc__minimal.a(strspn.c.obj)
 .debug_str     0x0000000000000000      0x1d9 lib/libc/minimal/liblib__libc__minimal.a(strspn.c.obj)
 .comment       0x0000000000000000       0x33 lib/libc/minimal/liblib__libc__minimal.a(strspn.c.obj)
 .debug_frame   0x0000000000000000       0x50 lib/libc/minimal/liblib__libc__minimal.a(strspn.c.obj)
 .text          0x0000000000000000        0x0 lib/libc/minimal/liblib__libc__minimal.a(prf.c.obj)
 .data          0x0000000000000000        0x0 lib/libc/minimal/liblib__libc__minimal.a(prf.c.obj)
 .bss           0x0000000000000000        0x0 lib/libc/minimal/liblib__libc__minimal.a(prf.c.obj)
 .text._to_x    0x0000000000000000       0x48 lib/libc/minimal/liblib__libc__minimal.a(prf.c.obj)
 .text._rlrshift
                0x0000000000000000       0x24 lib/libc/minimal/liblib__libc__minimal.a(prf.c.obj)
 .text._ldiv5   0x0000000000000000       0x52 lib/libc/minimal/liblib__libc__minimal.a(prf.c.obj)
 .text._get_digit
                0x0000000000000000       0x2e lib/libc/minimal/liblib__libc__minimal.a(prf.c.obj)
 .rodata.z_prf.str1.1
                0x0000000000000000        0xa lib/libc/minimal/liblib__libc__minimal.a(prf.c.obj)
 .text.z_prf    0x0000000000000000      0x9e0 lib/libc/minimal/liblib__libc__minimal.a(prf.c.obj)
 .debug_info    0x0000000000000000      0xe97 lib/libc/minimal/liblib__libc__minimal.a(prf.c.obj)
 .debug_abbrev  0x0000000000000000      0x3be lib/libc/minimal/liblib__libc__minimal.a(prf.c.obj)
 .debug_loc     0x0000000000000000     0x24f6 lib/libc/minimal/liblib__libc__minimal.a(prf.c.obj)
 .debug_aranges
                0x0000000000000000       0x40 lib/libc/minimal/liblib__libc__minimal.a(prf.c.obj)
 .debug_ranges  0x0000000000000000      0x198 lib/libc/minimal/liblib__libc__minimal.a(prf.c.obj)
 .debug_line    0x0000000000000000      0xf55 lib/libc/minimal/liblib__libc__minimal.a(prf.c.obj)
 .debug_str     0x0000000000000000      0x3ec lib/libc/minimal/liblib__libc__minimal.a(prf.c.obj)
 .comment       0x0000000000000000       0x33 lib/libc/minimal/liblib__libc__minimal.a(prf.c.obj)
 .debug_frame   0x0000000000000000       0xb8 lib/libc/minimal/liblib__libc__minimal.a(prf.c.obj)
 .text          0x0000000000000000        0x0 lib/libc/minimal/liblib__libc__minimal.a(stdout_console.c.obj)
 .data          0x0000000000000000        0x0 lib/libc/minimal/liblib__libc__minimal.a(stdout_console.c.obj)
 .bss           0x0000000000000000        0x0 lib/libc/minimal/liblib__libc__minimal.a(stdout_console.c.obj)
 .text.zephyr_fputc
                0x0000000000000000       0x20 lib/libc/minimal/liblib__libc__minimal.a(stdout_console.c.obj)
 .text.fputc    0x0000000000000000        0x4 lib/libc/minimal/liblib__libc__minimal.a(stdout_console.c.obj)
 .text.zephyr_fwrite
                0x0000000000000000       0x26 lib/libc/minimal/liblib__libc__minimal.a(stdout_console.c.obj)
 .text.fputs    0x0000000000000000       0x22 lib/libc/minimal/liblib__libc__minimal.a(stdout_console.c.obj)
 .text.fwrite   0x0000000000000000        0x4 lib/libc/minimal/liblib__libc__minimal.a(stdout_console.c.obj)
 .text.puts     0x0000000000000000       0x20 lib/libc/minimal/liblib__libc__minimal.a(stdout_console.c.obj)
 .text          0x0000000000000000        0x0 lib/libc/minimal/liblib__libc__minimal.a(sprintf.c.obj)
 .data          0x0000000000000000        0x0 lib/libc/minimal/liblib__libc__minimal.a(sprintf.c.obj)
 .bss           0x0000000000000000        0x0 lib/libc/minimal/liblib__libc__minimal.a(sprintf.c.obj)
 .text.sprintf_out
                0x0000000000000000       0x1a lib/libc/minimal/liblib__libc__minimal.a(sprintf.c.obj)
 .text.snprintf
                0x0000000000000000       0x30 lib/libc/minimal/liblib__libc__minimal.a(sprintf.c.obj)
 .text.sprintf  0x0000000000000000       0x30 lib/libc/minimal/liblib__libc__minimal.a(sprintf.c.obj)
 .text.vsnprintf
                0x0000000000000000       0x24 lib/libc/minimal/liblib__libc__minimal.a(sprintf.c.obj)
 .text.vsprintf
                0x0000000000000000       0x28 lib/libc/minimal/liblib__libc__minimal.a(sprintf.c.obj)
 .debug_info    0x0000000000000000      0x3d4 lib/libc/minimal/liblib__libc__minimal.a(sprintf.c.obj)
 .debug_abbrev  0x0000000000000000      0x1b2 lib/libc/minimal/liblib__libc__minimal.a(sprintf.c.obj)
 .debug_loc     0x0000000000000000      0x279 lib/libc/minimal/liblib__libc__minimal.a(sprintf.c.obj)
 .debug_aranges
                0x0000000000000000       0x40 lib/libc/minimal/liblib__libc__minimal.a(sprintf.c.obj)
 .debug_ranges  0x0000000000000000       0x30 lib/libc/minimal/liblib__libc__minimal.a(sprintf.c.obj)
 .debug_line    0x0000000000000000      0x2ad lib/libc/minimal/liblib__libc__minimal.a(sprintf.c.obj)
 .debug_str     0x0000000000000000      0x22d lib/libc/minimal/liblib__libc__minimal.a(sprintf.c.obj)
 .comment       0x0000000000000000       0x33 lib/libc/minimal/liblib__libc__minimal.a(sprintf.c.obj)
 .debug_frame   0x0000000000000000       0xa4 lib/libc/minimal/liblib__libc__minimal.a(sprintf.c.obj)
 .text          0x0000000000000000        0x0 lib/libc/minimal/liblib__libc__minimal.a(fprintf.c.obj)
 .data          0x0000000000000000        0x0 lib/libc/minimal/liblib__libc__minimal.a(fprintf.c.obj)
 .bss           0x0000000000000000        0x0 lib/libc/minimal/liblib__libc__minimal.a(fprintf.c.obj)
 .text.fprintf  0x0000000000000000       0x24 lib/libc/minimal/liblib__libc__minimal.a(fprintf.c.obj)
 .text.vfprintf
                0x0000000000000000       0x10 lib/libc/minimal/liblib__libc__minimal.a(fprintf.c.obj)
 .text.printf   0x0000000000000000       0x24 lib/libc/minimal/liblib__libc__minimal.a(fprintf.c.obj)
 .text.vprintf  0x0000000000000000       0x10 lib/libc/minimal/liblib__libc__minimal.a(fprintf.c.obj)
 .debug_info    0x0000000000000000      0x25d lib/libc/minimal/liblib__libc__minimal.a(fprintf.c.obj)
 .debug_abbrev  0x0000000000000000      0x13b lib/libc/minimal/liblib__libc__minimal.a(fprintf.c.obj)
 .debug_loc     0x0000000000000000      0x11c lib/libc/minimal/liblib__libc__minimal.a(fprintf.c.obj)
 .debug_aranges
                0x0000000000000000       0x38 lib/libc/minimal/liblib__libc__minimal.a(fprintf.c.obj)
 .debug_ranges  0x0000000000000000       0x28 lib/libc/minimal/liblib__libc__minimal.a(fprintf.c.obj)
 .debug_line    0x0000000000000000      0x1e1 lib/libc/minimal/liblib__libc__minimal.a(fprintf.c.obj)
 .debug_str     0x0000000000000000      0x20d lib/libc/minimal/liblib__libc__minimal.a(fprintf.c.obj)
 .comment       0x0000000000000000       0x33 lib/libc/minimal/liblib__libc__minimal.a(fprintf.c.obj)
 .debug_frame   0x0000000000000000       0x8c lib/libc/minimal/liblib__libc__minimal.a(fprintf.c.obj)
 .text          0x0000000000000000        0x0 lib/libc/minimal/liblib__libc__minimal.a(gmtime.c.obj)
 .data          0x0000000000000000        0x0 lib/libc/minimal/liblib__libc__minimal.a(gmtime.c.obj)
 .bss           0x0000000000000000        0x0 lib/libc/minimal/liblib__libc__minimal.a(gmtime.c.obj)
 .text.gmtime_r
                0x0000000000000000      0x1cc lib/libc/minimal/liblib__libc__minimal.a(gmtime.c.obj)
 .text.gmtime   0x0000000000000000        0xc lib/libc/minimal/liblib__libc__minimal.a(gmtime.c.obj)
 .bss.shared.3712
                0x0000000000000000       0x24 lib/libc/minimal/liblib__libc__minimal.a(gmtime.c.obj)
 .debug_info    0x0000000000000000      0x350 lib/libc/minimal/liblib__libc__minimal.a(gmtime.c.obj)
 .debug_abbrev  0x0000000000000000      0x1ab lib/libc/minimal/liblib__libc__minimal.a(gmtime.c.obj)
 .debug_loc     0x0000000000000000      0x392 lib/libc/minimal/liblib__libc__minimal.a(gmtime.c.obj)
 .debug_aranges
                0x0000000000000000       0x28 lib/libc/minimal/liblib__libc__minimal.a(gmtime.c.obj)
 .debug_ranges  0x0000000000000000       0x38 lib/libc/minimal/liblib__libc__minimal.a(gmtime.c.obj)
 .debug_line    0x0000000000000000      0x32f lib/libc/minimal/liblib__libc__minimal.a(gmtime.c.obj)
 .debug_str     0x0000000000000000      0x2d7 lib/libc/minimal/liblib__libc__minimal.a(gmtime.c.obj)
 .comment       0x0000000000000000       0x33 lib/libc/minimal/liblib__libc__minimal.a(gmtime.c.obj)
 .debug_frame   0x0000000000000000       0x4c lib/libc/minimal/liblib__libc__minimal.a(gmtime.c.obj)
 .text          0x0000000000000000        0x0 lib/posix/liblib__posix.a(pthread_common.c.obj)
 .data          0x0000000000000000        0x0 lib/posix/liblib__posix.a(pthread_common.c.obj)
 .bss           0x0000000000000000        0x0 lib/posix/liblib__posix.a(pthread_common.c.obj)
 .debug_info    0x0000000000000000      0x998 lib/posix/liblib__posix.a(pthread_common.c.obj)
 .debug_abbrev  0x0000000000000000      0x19d lib/posix/liblib__posix.a(pthread_common.c.obj)
 .debug_aranges
                0x0000000000000000       0x18 lib/posix/liblib__posix.a(pthread_common.c.obj)
 .debug_line    0x0000000000000000      0x3e2 lib/posix/liblib__posix.a(pthread_common.c.obj)
 .debug_str     0x0000000000000000      0x773 lib/posix/liblib__posix.a(pthread_common.c.obj)
 .comment       0x0000000000000000       0x33 lib/posix/liblib__posix.a(pthread_common.c.obj)
 .text          0x0000000000000000        0x0 lib/posix/liblib__posix.a(nanosleep.c.obj)
 .data          0x0000000000000000        0x0 lib/posix/liblib__posix.a(nanosleep.c.obj)
 .bss           0x0000000000000000        0x0 lib/posix/liblib__posix.a(nanosleep.c.obj)
 .text.arch_is_user_context
                0x0000000000000000       0x14 lib/posix/liblib__posix.a(nanosleep.c.obj)
 .text.z_errno  0x0000000000000000       0x1c lib/posix/liblib__posix.a(nanosleep.c.obj)
 .text.nanosleep
                0x0000000000000000      0x110 lib/posix/liblib__posix.a(nanosleep.c.obj)
 .debug_info    0x0000000000000000      0xfa0 lib/posix/liblib__posix.a(nanosleep.c.obj)
 .debug_abbrev  0x0000000000000000      0x38f lib/posix/liblib__posix.a(nanosleep.c.obj)
 .debug_loc     0x0000000000000000      0x34c lib/posix/liblib__posix.a(nanosleep.c.obj)
 .debug_aranges
                0x0000000000000000       0x30 lib/posix/liblib__posix.a(nanosleep.c.obj)
 .debug_ranges  0x0000000000000000       0xb0 lib/posix/liblib__posix.a(nanosleep.c.obj)
 .debug_line    0x0000000000000000      0x6ef lib/posix/liblib__posix.a(nanosleep.c.obj)
 .debug_str     0x0000000000000000      0x907 lib/posix/liblib__posix.a(nanosleep.c.obj)
 .comment       0x0000000000000000       0x33 lib/posix/liblib__posix.a(nanosleep.c.obj)
 .debug_frame   0x0000000000000000       0x6c lib/posix/liblib__posix.a(nanosleep.c.obj)
 .text          0x0000000000000000        0x0 soc/arm/common/cortex_m/libsoc__arm__common__cortex_m.a(arm_mpu_regions.c.obj)
 .data          0x0000000000000000        0x0 soc/arm/common/cortex_m/libsoc__arm__common__cortex_m.a(arm_mpu_regions.c.obj)
 .bss           0x0000000000000000        0x0 soc/arm/common/cortex_m/libsoc__arm__common__cortex_m.a(arm_mpu_regions.c.obj)
 .text          0x0000000000000000        0x0 soc/arm/nordic_nrf/nrf52/libsoc__arm__nordic_nrf__nrf52.a(soc.c.obj)
 .data          0x0000000000000000        0x0 soc/arm/nordic_nrf/nrf52/libsoc__arm__nordic_nrf__nrf52.a(soc.c.obj)
 .bss           0x0000000000000000        0x0 soc/arm/nordic_nrf/nrf52/libsoc__arm__nordic_nrf__nrf52.a(soc.c.obj)
 .text.sys_arch_reboot
                0x0000000000000000       0x2c soc/arm/nordic_nrf/nrf52/libsoc__arm__nordic_nrf__nrf52.a(soc.c.obj)
 .text          0x0000000000000000        0x0 soc/arm/nordic_nrf/nrf52/libsoc__arm__nordic_nrf__nrf52.a(power.c.obj)
 .data          0x0000000000000000        0x0 soc/arm/nordic_nrf/nrf52/libsoc__arm__nordic_nrf__nrf52.a(power.c.obj)
 .bss           0x0000000000000000        0x0 soc/arm/nordic_nrf/nrf52/libsoc__arm__nordic_nrf__nrf52.a(power.c.obj)
 .text.arch_is_user_context
                0x0000000000000000       0x14 soc/arm/nordic_nrf/nrf52/libsoc__arm__nordic_nrf__nrf52.a(power.c.obj)
 .text.sys_set_power_state
                0x0000000000000000        0x4 soc/arm/nordic_nrf/nrf52/libsoc__arm__nordic_nrf__nrf52.a(power.c.obj)
 .text._sys_pm_power_state_exit_post_ops
                0x0000000000000000       0x12 soc/arm/nordic_nrf/nrf52/libsoc__arm__nordic_nrf__nrf52.a(power.c.obj)
 .debug_info    0x0000000000000000      0xc42 soc/arm/nordic_nrf/nrf52/libsoc__arm__nordic_nrf__nrf52.a(power.c.obj)
 .debug_abbrev  0x0000000000000000      0x2e6 soc/arm/nordic_nrf/nrf52/libsoc__arm__nordic_nrf__nrf52.a(power.c.obj)
 .debug_loc     0x0000000000000000       0x8f soc/arm/nordic_nrf/nrf52/libsoc__arm__nordic_nrf__nrf52.a(power.c.obj)
 .debug_aranges
                0x0000000000000000       0x30 soc/arm/nordic_nrf/nrf52/libsoc__arm__nordic_nrf__nrf52.a(power.c.obj)
 .debug_ranges  0x0000000000000000       0x38 soc/arm/nordic_nrf/nrf52/libsoc__arm__nordic_nrf__nrf52.a(power.c.obj)
 .debug_line    0x0000000000000000      0x515 soc/arm/nordic_nrf/nrf52/libsoc__arm__nordic_nrf__nrf52.a(power.c.obj)
 .debug_str     0x0000000000000000      0x964 soc/arm/nordic_nrf/nrf52/libsoc__arm__nordic_nrf__nrf52.a(power.c.obj)
 .comment       0x0000000000000000       0x33 soc/arm/nordic_nrf/nrf52/libsoc__arm__nordic_nrf__nrf52.a(power.c.obj)
 .debug_frame   0x0000000000000000       0x48 soc/arm/nordic_nrf/nrf52/libsoc__arm__nordic_nrf__nrf52.a(power.c.obj)
 .text          0x0000000000000000        0x0 drivers/gpio/libdrivers__gpio.a(gpio_nrfx.c.obj)
 .data          0x0000000000000000        0x0 drivers/gpio/libdrivers__gpio.a(gpio_nrfx.c.obj)
 .bss           0x0000000000000000        0x0 drivers/gpio/libdrivers__gpio.a(gpio_nrfx.c.obj)
 .text          0x0000000000000000        0x0 drivers/gpio/libdrivers__gpio.a(gpio_handlers.c.obj)
 .data          0x0000000000000000        0x0 drivers/gpio/libdrivers__gpio.a(gpio_handlers.c.obj)
 .bss           0x0000000000000000        0x0 drivers/gpio/libdrivers__gpio.a(gpio_handlers.c.obj)
 .text          0x0000000000000000        0x0 drivers/serial/libdrivers__serial.a(uart_nrfx_uart.c.obj)
 .data          0x0000000000000000        0x0 drivers/serial/libdrivers__serial.a(uart_nrfx_uart.c.obj)
 .bss           0x0000000000000000        0x0 drivers/serial/libdrivers__serial.a(uart_nrfx_uart.c.obj)
 .text          0x0000000000000000        0x0 drivers/serial/libdrivers__serial.a(uart_handlers.c.obj)
 .data          0x0000000000000000        0x0 drivers/serial/libdrivers__serial.a(uart_handlers.c.obj)
 .bss           0x0000000000000000        0x0 drivers/serial/libdrivers__serial.a(uart_handlers.c.obj)
 .text          0x0000000000000000        0x0 ../modules/nordic/lib..__modules__hal__nordic.a(system_nrf52.c.obj)
 .data          0x0000000000000000        0x0 ../modules/nordic/lib..__modules__hal__nordic.a(system_nrf52.c.obj)
 .bss           0x0000000000000000        0x0 ../modules/nordic/lib..__modules__hal__nordic.a(system_nrf52.c.obj)
 .text.SystemCoreClockUpdate
                0x0000000000000000       0x10 ../modules/nordic/lib..__modules__hal__nordic.a(system_nrf52.c.obj)
 .text          0x0000000000000000        0x0 ../modules/nordic/lib..__modules__hal__nordic.a(nrfx_glue.c.obj)
 .data          0x0000000000000000        0x0 ../modules/nordic/lib..__modules__hal__nordic.a(nrfx_glue.c.obj)
 .bss           0x0000000000000000        0x0 ../modules/nordic/lib..__modules__hal__nordic.a(nrfx_glue.c.obj)
 .text.nrfx_isr
                0x0000000000000000        0x2 ../modules/nordic/lib..__modules__hal__nordic.a(nrfx_glue.c.obj)
 .rodata.nrfx_error_string_get.str1.1
                0x0000000000000000      0x178 ../modules/nordic/lib..__modules__hal__nordic.a(nrfx_glue.c.obj)
 .text.nrfx_error_string_get
                0x0000000000000000       0xd4 ../modules/nordic/lib..__modules__hal__nordic.a(nrfx_glue.c.obj)
 .text          0x0000000000000000        0x0 kernel/libkernel.a(device.c.obj)
 .data          0x0000000000000000        0x0 kernel/libkernel.a(device.c.obj)
 .bss           0x0000000000000000        0x0 kernel/libkernel.a(device.c.obj)
 .text.z_device_get_all_static
                0x0000000000000000       0x14 kernel/libkernel.a(device.c.obj)
 .text.device_busy_set
                0x0000000000000000        0x2 kernel/libkernel.a(device.c.obj)
 .text.device_busy_clear
                0x0000000000000000        0x2 kernel/libkernel.a(device.c.obj)
 .text          0x0000000000000000        0x0 kernel/libkernel.a(errno.c.obj)
 .data          0x0000000000000000        0x0 kernel/libkernel.a(errno.c.obj)
 .bss           0x0000000000000000        0x0 kernel/libkernel.a(errno.c.obj)
 .text.z_impl_z_errno
                0x0000000000000000        0xc kernel/libkernel.a(errno.c.obj)
 .text          0x0000000000000000        0x0 kernel/libkernel.a(fatal.c.obj)
 .data          0x0000000000000000        0x0 kernel/libkernel.a(fatal.c.obj)
 .bss           0x0000000000000000        0x0 kernel/libkernel.a(fatal.c.obj)
 .text.k_fatal_halt
                0x0000000000000000        0x6 kernel/libkernel.a(fatal.c.obj)
 .text          0x0000000000000000        0x0 kernel/libkernel.a(idle.c.obj)
 .data          0x0000000000000000        0x0 kernel/libkernel.a(idle.c.obj)
 .bss           0x0000000000000000        0x0 kernel/libkernel.a(idle.c.obj)
 .bss.sys_pm_idle_exit_notify
                0x0000000000000000        0x1 kernel/libkernel.a(idle.c.obj)
 .text          0x0000000000000000        0x0 kernel/libkernel.a(init.c.obj)
 .data          0x0000000000000000        0x0 kernel/libkernel.a(init.c.obj)
 .bss           0x0000000000000000        0x0 kernel/libkernel.a(init.c.obj)
 .text.main     0x0000000000000000        0x4 kernel/libkernel.a(init.c.obj)
 .text          0x0000000000000000        0x0 kernel/libkernel.a(msg_q.c.obj)
 .data          0x0000000000000000        0x0 kernel/libkernel.a(msg_q.c.obj)
 .bss           0x0000000000000000        0x0 kernel/libkernel.a(msg_q.c.obj)
 .text.k_msgq_cleanup
                0x0000000000000000       0x32 kernel/libkernel.a(msg_q.c.obj)
 .text.z_impl_k_msgq_get_attrs
                0x0000000000000000        0xe kernel/libkernel.a(msg_q.c.obj)
 .text          0x0000000000000000        0x0 kernel/libkernel.a(mutex.c.obj)
 .data          0x0000000000000000        0x0 kernel/libkernel.a(mutex.c.obj)
 .bss           0x0000000000000000        0x0 kernel/libkernel.a(mutex.c.obj)
 .text          0x0000000000000000        0x0 kernel/libkernel.a(queue.c.obj)
 .data          0x0000000000000000        0x0 kernel/libkernel.a(queue.c.obj)
 .bss           0x0000000000000000        0x0 kernel/libkernel.a(queue.c.obj)
 .text.k_queue_insert
                0x0000000000000000        0x6 kernel/libkernel.a(queue.c.obj)
 .text.k_queue_prepend
                0x0000000000000000        0xa kernel/libkernel.a(queue.c.obj)
 .text.k_queue_append_list
                0x0000000000000000       0x6e kernel/libkernel.a(queue.c.obj)
 .text.k_queue_merge_slist
                0x0000000000000000       0x1c kernel/libkernel.a(queue.c.obj)
 .text          0x0000000000000000        0x0 kernel/libkernel.a(sched.c.obj)
 .data          0x0000000000000000        0x0 kernel/libkernel.a(sched.c.obj)
 .bss           0x0000000000000000        0x0 kernel/libkernel.a(sched.c.obj)
 .text.z_is_t1_higher_prio_than_t2
                0x0000000000000000       0x12 kernel/libkernel.a(sched.c.obj)
 .text.z_priq_dumb_add
                0x0000000000000000       0x42 kernel/libkernel.a(sched.c.obj)
 .text.z_pend_thread
                0x0000000000000000        0x4 kernel/libkernel.a(sched.c.obj)
 .text.z_pend_curr_irqlock
                0x0000000000000000       0x48 kernel/libkernel.a(sched.c.obj)
 .text.z_priq_rb_lessthan
                0x0000000000000000       0x24 kernel/libkernel.a(sched.c.obj)
 .text.z_priq_rb_add
                0x0000000000000000       0x5c kernel/libkernel.a(sched.c.obj)
 .text.z_priq_rb_remove
                0x0000000000000000       0x10 kernel/libkernel.a(sched.c.obj)
 .text.z_priq_rb_best
                0x0000000000000000       0x10 kernel/libkernel.a(sched.c.obj)
 .text.z_priq_mq_add
                0x0000000000000000       0x32 kernel/libkernel.a(sched.c.obj)
 .text.z_priq_mq_remove
                0x0000000000000000       0x36 kernel/libkernel.a(sched.c.obj)
 .text.z_priq_mq_best
                0x0000000000000000       0x28 kernel/libkernel.a(sched.c.obj)
 .text.z_impl_k_thread_priority_get
                0x0000000000000000        0x6 kernel/libkernel.a(sched.c.obj)
 .text.z_impl_k_thread_priority_set
                0x0000000000000000        0x4 kernel/libkernel.a(sched.c.obj)
 .text          0x0000000000000000        0x0 kernel/libkernel.a(sem.c.obj)
 .data          0x0000000000000000        0x0 kernel/libkernel.a(sem.c.obj)
 .bss           0x0000000000000000        0x0 kernel/libkernel.a(sem.c.obj)
 .text          0x0000000000000000        0x0 kernel/libkernel.a(stack.c.obj)
 .data          0x0000000000000000        0x0 kernel/libkernel.a(stack.c.obj)
 .bss           0x0000000000000000        0x0 kernel/libkernel.a(stack.c.obj)
 .text.k_stack_cleanup
                0x0000000000000000       0x32 kernel/libkernel.a(stack.c.obj)
 .text          0x0000000000000000        0x0 kernel/libkernel.a(thread.c.obj)
 .data          0x0000000000000000        0x0 kernel/libkernel.a(thread.c.obj)
 .bss           0x0000000000000000        0x0 kernel/libkernel.a(thread.c.obj)
 .text.k_thread_foreach
                0x0000000000000000        0x2 kernel/libkernel.a(thread.c.obj)
 .text.k_thread_foreach_unlocked
                0x0000000000000000        0x2 kernel/libkernel.a(thread.c.obj)
 .text.z_thread_essential_set
                0x0000000000000000       0x14 kernel/libkernel.a(thread.c.obj)
 .text.z_thread_essential_clear
                0x0000000000000000       0x14 kernel/libkernel.a(thread.c.obj)
 .text.z_is_thread_essential
                0x0000000000000000       0x10 kernel/libkernel.a(thread.c.obj)
 .text.k_thread_name_get
                0x0000000000000000        0x4 kernel/libkernel.a(thread.c.obj)
 .text.z_impl_k_thread_name_copy
                0x0000000000000000        0x6 kernel/libkernel.a(thread.c.obj)
 .rodata.k_thread_state_str.str1.1
                0x0000000000000000       0x3f kernel/libkernel.a(thread.c.obj)
 .text.k_thread_state_str
                0x0000000000000000       0x74 kernel/libkernel.a(thread.c.obj)
 .text.z_impl_k_thread_start
                0x0000000000000000        0x4 kernel/libkernel.a(thread.c.obj)
 .text.z_init_thread_base
                0x0000000000000000       0x10 kernel/libkernel.a(thread.c.obj)
 .text.k_thread_user_mode_enter
                0x0000000000000000       0x38 kernel/libkernel.a(thread.c.obj)
 .text.z_impl_k_float_disable
                0x0000000000000000        0x6 kernel/libkernel.a(thread.c.obj)
 .text          0x0000000000000000        0x0 kernel/libkernel.a(work_q.c.obj)
 .data          0x0000000000000000        0x0 kernel/libkernel.a(work_q.c.obj)
 .bss           0x0000000000000000        0x0 kernel/libkernel.a(work_q.c.obj)
 .text.k_work_submit_to_queue
                0x0000000000000000       0x30 kernel/libkernel.a(work_q.c.obj)
 .text.work_timeout
                0x0000000000000000        0xa kernel/libkernel.a(work_q.c.obj)
 .text.work_cancel
                0x0000000000000000       0x92 kernel/libkernel.a(work_q.c.obj)
 .text.k_delayed_work_init
                0x0000000000000000       0x10 kernel/libkernel.a(work_q.c.obj)
 .text.k_delayed_work_submit_to_queue
                0x0000000000000000       0x80 kernel/libkernel.a(work_q.c.obj)
 .text.k_delayed_work_cancel
                0x0000000000000000       0x2a kernel/libkernel.a(work_q.c.obj)
 .text          0x0000000000000000        0x0 kernel/libkernel.a(timeout.c.obj)
 .data          0x0000000000000000        0x0 kernel/libkernel.a(timeout.c.obj)
 .bss           0x0000000000000000        0x0 kernel/libkernel.a(timeout.c.obj)
 .text.z_impl_k_uptime_ticks
                0x0000000000000000        0x4 kernel/libkernel.a(timeout.c.obj)
 .text          0x0000000000000000        0x0 kernel/libkernel.a(timer.c.obj)
 .data          0x0000000000000000        0x0 kernel/libkernel.a(timer.c.obj)
 .bss           0x0000000000000000        0x0 kernel/libkernel.a(timer.c.obj)
 .text          0x0000000000000000        0x0 kernel/libkernel.a(futex.c.obj)
 .data          0x0000000000000000        0x0 kernel/libkernel.a(futex.c.obj)
 .bss           0x0000000000000000        0x0 kernel/libkernel.a(futex.c.obj)
 .text          0x0000000000000000        0x0 kernel/libkernel.a(mem_domain.c.obj)
 .data          0x0000000000000000        0x0 kernel/libkernel.a(mem_domain.c.obj)
 .bss           0x0000000000000000        0x0 kernel/libkernel.a(mem_domain.c.obj)
 .text.k_mem_domain_init
                0x0000000000000000       0x62 kernel/libkernel.a(mem_domain.c.obj)
 .text.k_mem_domain_destroy
                0x0000000000000000       0x62 kernel/libkernel.a(mem_domain.c.obj)
 .text.k_mem_domain_add_partition
                0x0000000000000000       0x5c kernel/libkernel.a(mem_domain.c.obj)
 .text.k_mem_domain_remove_partition
                0x0000000000000000       0x64 kernel/libkernel.a(mem_domain.c.obj)
 .text.k_mem_domain_remove_thread
                0x0000000000000000       0x32 kernel/libkernel.a(mem_domain.c.obj)
 .text          0x0000000000000000        0x0 kernel/libkernel.a(userspace.c.obj)
 .data          0x0000000000000000        0x0 kernel/libkernel.a(userspace.c.obj)
 .bss           0x0000000000000000        0x0 kernel/libkernel.a(userspace.c.obj)
 .text.otype_to_str
                0x0000000000000000        0x4 kernel/libkernel.a(userspace.c.obj)
 .text.z_dump_object_error
                0x0000000000000000       0x38 kernel/libkernel.a(userspace.c.obj)
 .text.k_object_access_revoke
                0x0000000000000000       0x16 kernel/libkernel.a(userspace.c.obj)
 .text.z_impl_k_object_release
                0x0000000000000000        0xc kernel/libkernel.a(userspace.c.obj)
 .text.k_object_access_all_grant
                0x0000000000000000       0x12 kernel/libkernel.a(userspace.c.obj)
 .text.z_object_recycle
                0x0000000000000000       0x2a kernel/libkernel.a(userspace.c.obj)
 .text.z_user_alloc_from_copy
                0x0000000000000000       0x2e kernel/libkernel.a(userspace.c.obj)
 .text.z_user_to_copy
                0x0000000000000000       0x2a kernel/libkernel.a(userspace.c.obj)
 .text.z_user_string_alloc_copy
                0x0000000000000000       0x36 kernel/libkernel.a(userspace.c.obj)
 .text          0x0000000000000000        0x0 kernel/libkernel.a(mempool.c.obj)
 .data          0x0000000000000000        0x0 kernel/libkernel.a(mempool.c.obj)
 .bss           0x0000000000000000        0x0 kernel/libkernel.a(mempool.c.obj)
 .text.k_mem_pool_free
                0x0000000000000000        0x4 kernel/libkernel.a(mempool.c.obj)
 .text.k_malloc
                0x0000000000000000        0xc kernel/libkernel.a(mempool.c.obj)
 .text.k_calloc
                0x0000000000000000       0x24 kernel/libkernel.a(mempool.c.obj)
 .text.k_thread_system_pool_assign
                0x0000000000000000        0xc kernel/libkernel.a(mempool.c.obj)
 .text          0x0000000000000000        0x0 kernel/libkernel.a(userspace_handler.c.obj)
 .data          0x0000000000000000        0x0 kernel/libkernel.a(userspace_handler.c.obj)
 .bss           0x0000000000000000        0x0 kernel/libkernel.a(userspace_handler.c.obj)
 .text          0x0000000000000000        0x0 kernel/libkernel.a(kheap.c.obj)
 .data          0x0000000000000000        0x0 kernel/libkernel.a(kheap.c.obj)
 .bss           0x0000000000000000        0x0 kernel/libkernel.a(kheap.c.obj)
 .text          0x0000000000000000        0x0 CMakeFiles/offsets.dir/arch/arm/core/offsets/offsets.c.obj
 .data          0x0000000000000000        0x0 CMakeFiles/offsets.dir/arch/arm/core/offsets/offsets.c.obj
 .bss           0x0000000000000000        0x0 CMakeFiles/offsets.dir/arch/arm/core/offsets/offsets.c.obj
 .text          0x0000000000000000       0xa0 /home/huynhtai/Downloads/ebook_RTOS/Zephyr_SDK/arm-zephyr-eabi/bin/../lib/gcc/arm-zephyr-eabi/9.2.0/thumb/v7e-m/nofp/libgcc.a(_aeabi_ldivmod.o)
 .data          0x0000000000000000        0x0 /home/huynhtai/Downloads/ebook_RTOS/Zephyr_SDK/arm-zephyr-eabi/bin/../lib/gcc/arm-zephyr-eabi/9.2.0/thumb/v7e-m/nofp/libgcc.a(_aeabi_ldivmod.o)
 .bss           0x0000000000000000        0x0 /home/huynhtai/Downloads/ebook_RTOS/Zephyr_SDK/arm-zephyr-eabi/bin/../lib/gcc/arm-zephyr-eabi/9.2.0/thumb/v7e-m/nofp/libgcc.a(_aeabi_ldivmod.o)
 .debug_frame   0x0000000000000000       0x44 /home/huynhtai/Downloads/ebook_RTOS/Zephyr_SDK/arm-zephyr-eabi/bin/../lib/gcc/arm-zephyr-eabi/9.2.0/thumb/v7e-m/nofp/libgcc.a(_aeabi_ldivmod.o)
 .data          0x0000000000000000        0x0 /home/huynhtai/Downloads/ebook_RTOS/Zephyr_SDK/arm-zephyr-eabi/bin/../lib/gcc/arm-zephyr-eabi/9.2.0/thumb/v7e-m/nofp/libgcc.a(_aeabi_uldivmod.o)
 .bss           0x0000000000000000        0x0 /home/huynhtai/Downloads/ebook_RTOS/Zephyr_SDK/arm-zephyr-eabi/bin/../lib/gcc/arm-zephyr-eabi/9.2.0/thumb/v7e-m/nofp/libgcc.a(_aeabi_uldivmod.o)
 .data          0x0000000000000000        0x0 /home/huynhtai/Downloads/ebook_RTOS/Zephyr_SDK/arm-zephyr-eabi/bin/../lib/gcc/arm-zephyr-eabi/9.2.0/thumb/v7e-m/nofp/libgcc.a(_udivmoddi4.o)
 .bss           0x0000000000000000        0x0 /home/huynhtai/Downloads/ebook_RTOS/Zephyr_SDK/arm-zephyr-eabi/bin/../lib/gcc/arm-zephyr-eabi/9.2.0/thumb/v7e-m/nofp/libgcc.a(_udivmoddi4.o)
 .ARM.extab     0x0000000000000000        0x0 /home/huynhtai/Downloads/ebook_RTOS/Zephyr_SDK/arm-zephyr-eabi/bin/../lib/gcc/arm-zephyr-eabi/9.2.0/thumb/v7e-m/nofp/libgcc.a(_udivmoddi4.o)
 .data          0x0000000000000000        0x0 /home/huynhtai/Downloads/ebook_RTOS/Zephyr_SDK/arm-zephyr-eabi/bin/../lib/gcc/arm-zephyr-eabi/9.2.0/thumb/v7e-m/nofp/libgcc.a(_dvmd_tls.o)
 .bss           0x0000000000000000        0x0 /home/huynhtai/Downloads/ebook_RTOS/Zephyr_SDK/arm-zephyr-eabi/bin/../lib/gcc/arm-zephyr-eabi/9.2.0/thumb/v7e-m/nofp/libgcc.a(_dvmd_tls.o)

Memory Configuration

Name             Origin             Length             Attributes
FLASH            0x0000000000000000 0x0000000000080000 xr
SRAM             0x0000000020000000 0x0000000000010000 xw
IDT_LIST         0x0000000020010000 0x0000000000000800 xw
*default*        0x0000000000000000 0xffffffffffffffff

Linker script and memory map

LOAD CMakeFiles/app_smem_unaligned_prebuilt.dir/misc/empty_file.c.obj
                0x0000000000000020                _region_min_align = 0x20

.rel.plt        0x0000000000000000        0x0
 *(SORT_BY_ALIGNMENT(.rel.plt))
                [!provide]                        PROVIDE (__rel_iplt_start = .)
 *(SORT_BY_ALIGNMENT(.rel.iplt))
 .rel.iplt      0x0000000000000000        0x0 ../app/libapp.a(main.c.obj)
                [!provide]                        PROVIDE (__rel_iplt_end = .)

.rela.plt       0x0000000000000000        0x0
 *(SORT_BY_ALIGNMENT(.rela.plt))
                [!provide]                        PROVIDE (__rela_iplt_start = .)
 *(SORT_BY_ALIGNMENT(.rela.iplt))
                [!provide]                        PROVIDE (__rela_iplt_end = .)

.rel.dyn
 *(SORT_BY_ALIGNMENT(.rel.*))

.rela.dyn
 *(SORT_BY_ALIGNMENT(.rela.*))

/DISCARD/
 *(SORT_BY_ALIGNMENT(.plt))
 *(SORT_BY_ALIGNMENT(.iplt))
 *(SORT_BY_ALIGNMENT(.got.plt))
 *(SORT_BY_ALIGNMENT(.igot.plt))
 *(SORT_BY_ALIGNMENT(.got))
 *(SORT_BY_ALIGNMENT(.igot))
 *(SORT_BY_ALIGNMENT(.note.GNU-stack))
                0x0000000000000000                _image_rom_start = 0x0

rom_start       0x0000000000000000       0xdc
                0x0000000000000000                . = 0x0
                0x0000000000000000                . = ALIGN (0x4)
                0x0000000000000000                . = ALIGN (0x80)
                0x0000000000000000                . = ALIGN (0x100)
                0x0000000000000000                _vector_start = .
 *(SORT_BY_ALIGNMENT(.exc_vector_table))
 *(SORT_BY_ALIGNMENT(.exc_vector_table.*))
 .exc_vector_table._vector_table_section
                0x0000000000000000       0x40 arch/arch/arm/core/aarch32/cortex_m/libarch__arm__core__aarch32__cortex_m.a(vector_table.S.obj)
                0x0000000000000000                _vector_table
 *(SORT_BY_ALIGNMENT(.gnu.linkonce.irq_vector_table))
 .gnu.linkonce.irq_vector_table
                0x0000000000000040       0x9c arch/common/libarch__common.a(isr_tables.c.obj)
                0x0000000000000040                _irq_vector_table
 *(SORT_BY_ALIGNMENT(.vectors))
                0x00000000000000dc                _vector_end = .
 *(SORT_BY_ALIGNMENT(.openocd_dbg))
 *(SORT_BY_ALIGNMENT(.openocd_dbg.*))

text            0x00000000000000dc     0x6fa6
                0x00000000000000dc                _image_text_start = .
                0x00000000000000dc                _kobject_text_area_start = .
 *(SORT_BY_ALIGNMENT(.kobject_data.text*))
                0x00000000000000dc                _kobject_text_area_end = .
                0x00000000000000dc                _kobject_text_area_used = (_kobject_text_area_end - _kobject_text_area_start)
                0x00000000000000dc                PROVIDE (z_object_find = .)
                0x00000000000000dc                PROVIDE (z_object_wordlist_foreach = .)
                0x00000000000001dc                . = MAX (., (_kobject_text_area_start + 0x100))
 *fill*         0x00000000000000dc      0x100 
                0x0000000000000001                ASSERT ((0x100 >= _kobject_text_area_used), The configuration system has incorrectly set
'CONFIG_KOBJECT_TEXT_AREA' to
256, which is not big enough. You must
through Kconfig either disable 'CONFIG_USERSPACE', or set
'CONFIG_KOBJECT_TEXT_AREA' to a value larger than
256 .)
 *(SORT_BY_ALIGNMENT(.text))
 .text          0x00000000000001dc       0x30 /home/huynhtai/Downloads/ebook_RTOS/Zephyr_SDK/arm-zephyr-eabi/bin/../lib/gcc/arm-zephyr-eabi/9.2.0/thumb/v7e-m/nofp/libgcc.a(_aeabi_uldivmod.o)
                0x00000000000001dc                __aeabi_uldivmod
 .text          0x000000000000020c      0x2c4 /home/huynhtai/Downloads/ebook_RTOS/Zephyr_SDK/arm-zephyr-eabi/bin/../lib/gcc/arm-zephyr-eabi/9.2.0/thumb/v7e-m/nofp/libgcc.a(_udivmoddi4.o)
                0x000000000000020c                __udivmoddi4
 .text          0x00000000000004d0        0x4 /home/huynhtai/Downloads/ebook_RTOS/Zephyr_SDK/arm-zephyr-eabi/bin/../lib/gcc/arm-zephyr-eabi/9.2.0/thumb/v7e-m/nofp/libgcc.a(_dvmd_tls.o)
                0x00000000000004d0                __aeabi_ldiv0
                0x00000000000004d0                __aeabi_idiv0
 *(SORT_BY_ALIGNMENT(.text.*))
 .text.k_stack_pop.constprop.0
                0x00000000000004d4       0x2c ../app/libapp.a(main.c.obj)
 .text.my_expiry_function
                0x0000000000000500       0x30 ../app/libapp.a(main.c.obj)
                0x0000000000000500                my_expiry_function
 .text.thread_b
                0x0000000000000530       0x28 ../app/libapp.a(main.c.obj)
                0x0000000000000530                thread_b
 .text.thread_a
                0x0000000000000558       0x2c ../app/libapp.a(main.c.obj)
                0x0000000000000558                thread_a
 .text.device_get_binding.constprop.0
                0x0000000000000584       0x24 ../app/libapp.a(main.c.obj)
 .text.k_stack_push.constprop.0
                0x00000000000005a8       0x24 ../app/libapp.a(main.c.obj)
 .text.print_workqueue
                0x00000000000005cc       0x58 ../app/libapp.a(main.c.obj)
                0x00000000000005cc                print_workqueue
 .text.k_busy_wait.constprop.0
                0x0000000000000624       0x24 ../app/libapp.a(main.c.obj)
 .text.Thread_receive
                0x0000000000000648       0x54 ../app/libapp.a(main.c.obj)
                0x0000000000000648                Thread_receive
 .text.Thread_send
                0x000000000000069c       0x5c ../app/libapp.a(main.c.obj)
                0x000000000000069c                Thread_send
 .text.main     0x00000000000006f8      0x290 ../app/libapp.a(main.c.obj)
                0x00000000000006f8                main
 .text.print_digits
                0x0000000000000988       0x98 libzephyr.a(printk.c.obj)
 .text.char_out
                0x0000000000000a20       0x10 libzephyr.a(printk.c.obj)
 .text.__printk_hook_install
                0x0000000000000a30        0xc libzephyr.a(printk.c.obj)
                0x0000000000000a30                __printk_hook_install
 .text.z_vprintk
                0x0000000000000a3c      0x23c libzephyr.a(printk.c.obj)
                0x0000000000000a3c                z_vprintk
 .text.z_impl_k_str_out
                0x0000000000000c78       0x1c libzephyr.a(printk.c.obj)
                0x0000000000000c78                z_impl_k_str_out
 .text.vprintk  0x0000000000000c94       0x4c libzephyr.a(printk.c.obj)
                0x0000000000000c94                vprintk
 .text.z_mrsh_k_str_out
                0x0000000000000ce0       0x40 libzephyr.a(printk.c.obj)
                0x0000000000000ce0                z_mrsh_k_str_out
 .text.process_event
                0x0000000000000d20      0x1dc libzephyr.a(onoff.c.obj)
 .text.z_mrsh_z_sys_mutex_kernel_lock
                0x0000000000000efc       0x40 libzephyr.a(mutex.c.obj)
                0x0000000000000efc                z_mrsh_z_sys_mutex_kernel_lock
 .text.z_impl_z_sys_mutex_kernel_unlock
                0x0000000000000f3c       0x4c libzephyr.a(mutex.c.obj)
                0x0000000000000f3c                z_impl_z_sys_mutex_kernel_unlock
 .text.z_mrsh_z_sys_mutex_kernel_unlock
                0x0000000000000f88       0x38 libzephyr.a(mutex.c.obj)
                0x0000000000000f88                z_mrsh_z_sys_mutex_kernel_unlock
 .text.console_out
                0x0000000000000fc0       0x24 libzephyr.a(uart_console.c.obj)
 .text.uart_console_init
                0x0000000000000fe4       0x44 libzephyr.a(uart_console.c.obj)
 .text.onoff_stop
                0x0000000000001028       0x48 libzephyr.a(nrf_power_clock.c.obj)
 .text.onoff_start
                0x0000000000001070       0x5c libzephyr.a(nrf_power_clock.c.obj)
 .text.clk_init
                0x00000000000010cc       0x50 libzephyr.a(nrf_power_clock.c.obj)
 .text.clkstarted_handle.constprop.0
                0x000000000000111c       0x38 libzephyr.a(nrf_power_clock.c.obj)
 .text.generic_hfclk_start
                0x0000000000001154       0x68 libzephyr.a(nrf_power_clock.c.obj)
 .text.lfclk_stop
                0x00000000000011bc       0x20 libzephyr.a(nrf_power_clock.c.obj)
 .text.generic_hfclk_stop
                0x00000000000011dc       0x44 libzephyr.a(nrf_power_clock.c.obj)
 .text.lfclk_start
                0x0000000000001220       0x38 libzephyr.a(nrf_power_clock.c.obj)
 .text.api_blocking_start
                0x0000000000001258       0x50 libzephyr.a(nrf_power_clock.c.obj)
 .text.nrf_power_clock_isr
                0x00000000000012a8       0x74 libzephyr.a(nrf_power_clock.c.obj)
                0x00000000000012a8                nrf_power_clock_isr
 .text.z_nrf_clock_control_lf_on
                0x000000000000131c       0x54 libzephyr.a(nrf_power_clock.c.obj)
                0x000000000000131c                z_nrf_clock_control_lf_on
 .text.handle_next_cycle_case
                0x0000000000001370       0x28 libzephyr.a(nrf_rtc_timer.c.obj)
 .text.event_clear
                0x0000000000001398       0x18 libzephyr.a(nrf_rtc_timer.c.obj)
 .text.rtc_nrf_isr
                0x00000000000013b0       0x2c libzephyr.a(nrf_rtc_timer.c.obj)
                0x00000000000013b0                rtc_nrf_isr
 .text.z_clock_driver_init
                0x00000000000013dc       0x50 libzephyr.a(nrf_rtc_timer.c.obj)
                0x00000000000013dc                z_clock_driver_init
 .text.z_clock_set_timeout
                0x000000000000142c       0xd8 libzephyr.a(nrf_rtc_timer.c.obj)
                0x000000000000142c                z_clock_set_timeout
 .text.z_clock_elapsed
                0x0000000000001504       0x34 libzephyr.a(nrf_rtc_timer.c.obj)
                0x0000000000001504                z_clock_elapsed
 .text._DoInit  0x0000000000001538       0x60 libzephyr.a(SEGGER_RTT.c.obj)
 .text.arch_swap
                0x0000000000001598       0x38 arch/arch/arm/core/aarch32/libarch__arm__core__aarch32.a(swap.c.obj)
                0x0000000000001598                arch_swap
 .text.z_arm_pendsv
                0x00000000000015d0       0x70 arch/arch/arm/core/aarch32/libarch__arm__core__aarch32.a(swap_helper.S.obj)
                0x00000000000015d0                z_arm_pendsv
 .text.z_arm_svc
                0x0000000000001640       0x70 arch/arch/arm/core/aarch32/libarch__arm__core__aarch32.a(swap_helper.S.obj)
                0x0000000000001640                z_arm_svc
 .text.arch_irq_enable
                0x00000000000016b0       0x20 arch/arch/arm/core/aarch32/libarch__arm__core__aarch32.a(irq_manage.c.obj)
                0x00000000000016b0                arch_irq_enable
 .text.z_arm_irq_priority_set
                0x00000000000016d0       0x30 arch/arch/arm/core/aarch32/libarch__arm__core__aarch32.a(irq_manage.c.obj)
                0x00000000000016d0                z_arm_irq_priority_set
 .text.arch_user_mode_enter
                0x0000000000001700       0x38 arch/arch/arm/core/aarch32/libarch__arm__core__aarch32.a(thread.c.obj)
                0x0000000000001700                arch_user_mode_enter
 .text.arch_new_thread
                0x0000000000001738       0x50 arch/arch/arm/core/aarch32/libarch__arm__core__aarch32.a(thread.c.obj)
                0x0000000000001738                arch_new_thread
 .text.z_check_thread_stack_fail
                0x0000000000001788       0x48 arch/arch/arm/core/aarch32/libarch__arm__core__aarch32.a(thread.c.obj)
                0x0000000000001788                z_check_thread_stack_fail
 .text.arch_switch_to_main_thread
                0x00000000000017d0       0x34 arch/arch/arm/core/aarch32/libarch__arm__core__aarch32.a(thread.c.obj)
                0x00000000000017d0                arch_switch_to_main_thread
 .text.z_arm_cpu_idle_init
                0x0000000000001804        0xc arch/arch/arm/core/aarch32/libarch__arm__core__aarch32.a(cpu_idle.S.obj)
                0x0000000000001804                z_arm_cpu_idle_init
 .text.arch_cpu_idle
                0x0000000000001810       0x1c arch/arch/arm/core/aarch32/libarch__arm__core__aarch32.a(cpu_idle.S.obj)
                0x0000000000001810                arch_cpu_idle
 .text.z_SysNmiOnReset
                0x000000000000182c        0x8 arch/arch/arm/core/aarch32/libarch__arm__core__aarch32.a(nmi_on_reset.S.obj)
                0x000000000000182c                z_SysNmiOnReset
 .text.z_arm_prep_c
                0x0000000000001834       0x44 arch/arch/arm/core/aarch32/libarch__arm__core__aarch32.a(prep_c.c.obj)
                0x0000000000001834                z_arm_prep_c
 .text._isr_wrapper
                0x0000000000001878       0x40 arch/arch/arm/core/aarch32/libarch__arm__core__aarch32.a(isr_wrapper.S.obj)
                0x0000000000001878                _isr_wrapper
 .text.z_arm_userspace_enter
                0x00000000000018b8       0x84 arch/arch/arm/core/aarch32/libarch__arm__core__aarch32.a(userspace.S.obj)
                0x00000000000018b8                z_arm_userspace_enter
 .text.z_arm_do_syscall
                0x000000000000193c       0x94 arch/arch/arm/core/aarch32/libarch__arm__core__aarch32.a(userspace.S.obj)
                0x000000000000193c                z_arm_do_syscall
 .text.arch_user_string_nlen
                0x00000000000019d0       0x24 arch/arch/arm/core/aarch32/libarch__arm__core__aarch32.a(userspace.S.obj)
                0x00000000000019d0                arch_user_string_nlen
                0x00000000000019da                z_arm_user_string_nlen_fault_start
                0x00000000000019dc                z_arm_user_string_nlen_fault_end
                0x00000000000019ec                z_arm_user_string_nlen_fixup
 .text._reset_section
                0x00000000000019f4       0x30 arch/arch/arm/core/aarch32/cortex_m/libarch__arm__core__aarch32__cortex_m.a(reset.S.obj)
                0x00000000000019f4                z_arm_reset
                0x00000000000019f4                __start
 .text.__fault  0x0000000000001a24       0x14 arch/arch/arm/core/aarch32/cortex_m/libarch__arm__core__aarch32__cortex_m.a(fault_s.S.obj)
                0x0000000000001a24                z_arm_bus_fault
                0x0000000000001a24                z_arm_usage_fault
                0x0000000000001a24                z_arm_mpu_fault
                0x0000000000001a24                z_arm_exc_spurious
                0x0000000000001a24                z_arm_debug_monitor
                0x0000000000001a24                z_arm_hard_fault
 .text.mem_manage_fault
                0x0000000000001a38       0xbc arch/arch/arm/core/aarch32/cortex_m/libarch__arm__core__aarch32__cortex_m.a(fault.c.obj)
 .text.usage_fault.isra.0
                0x0000000000001af4       0x5c arch/arch/arm/core/aarch32/cortex_m/libarch__arm__core__aarch32__cortex_m.a(fault.c.obj)
 .text.bus_fault
                0x0000000000001b50       0x9c arch/arch/arm/core/aarch32/cortex_m/libarch__arm__core__aarch32__cortex_m.a(fault.c.obj)
 .text.z_arm_fault
                0x0000000000001bec      0x104 arch/arch/arm/core/aarch32/cortex_m/libarch__arm__core__aarch32__cortex_m.a(fault.c.obj)
                0x0000000000001bec                z_arm_fault
 .text.z_arm_fault_init
                0x0000000000001cf0       0x10 arch/arch/arm/core/aarch32/cortex_m/libarch__arm__core__aarch32__cortex_m.a(fault.c.obj)
                0x0000000000001cf0                z_arm_fault_init
 .text._HandlerModeExit
                0x0000000000001d00       0x1c arch/arch/arm/core/aarch32/cortex_m/libarch__arm__core__aarch32__cortex_m.a(exc_exit.S.obj)
                0x0000000000001d00                z_arm_exc_exit
                0x0000000000001d00                z_arm_int_exit
 .text.z_arm_interrupt_init
                0x0000000000001d1c       0x18 arch/arch/arm/core/aarch32/cortex_m/libarch__arm__core__aarch32__cortex_m.a(irq_init.c.obj)
                0x0000000000001d1c                z_arm_interrupt_init
 .text.z_impl_k_thread_abort
                0x0000000000001d34       0x4c arch/arch/arm/core/aarch32/cortex_m/libarch__arm__core__aarch32__cortex_m.a(thread_abort.c.obj)
                0x0000000000001d34                z_impl_k_thread_abort
 .text.z_arm_configure_static_mpu_regions
                0x0000000000001d80       0x38 arch/arch/arm/core/aarch32/cortex_m/mpu/libarch__arm__core__aarch32__cortex_m__mpu.a(arm_core_mpu.c.obj)
                0x0000000000001d80                z_arm_configure_static_mpu_regions
 .text.z_arm_configure_dynamic_mpu_regions
                0x0000000000001db8       0x80 arch/arch/arm/core/aarch32/cortex_m/mpu/libarch__arm__core__aarch32__cortex_m__mpu.a(arm_core_mpu.c.obj)
                0x0000000000001db8                z_arm_configure_dynamic_mpu_regions
 .text.arch_mem_domain_thread_add
                0x0000000000001e38       0x14 arch/arch/arm/core/aarch32/cortex_m/mpu/libarch__arm__core__aarch32__cortex_m__mpu.a(arm_core_mpu.c.obj)
                0x0000000000001e38                arch_mem_domain_thread_add
 .text.is_enabled_region
                0x0000000000001e4c       0x28 arch/arch/arm/core/aarch32/cortex_m/mpu/libarch__arm__core__aarch32__cortex_m__mpu.a(arm_mpu.c.obj)
 .text.mpu_configure_region
                0x0000000000001e74       0x64 arch/arch/arm/core/aarch32/cortex_m/mpu/libarch__arm__core__aarch32__cortex_m__mpu.a(arm_mpu.c.obj)
 .text.arm_core_mpu_enable
                0x0000000000001ed8       0x14 arch/arch/arm/core/aarch32/cortex_m/mpu/libarch__arm__core__aarch32__cortex_m__mpu.a(arm_mpu.c.obj)
                0x0000000000001ed8                arm_core_mpu_enable
 .text.arm_core_mpu_disable
                0x0000000000001eec       0x10 arch/arch/arm/core/aarch32/cortex_m/mpu/libarch__arm__core__aarch32__cortex_m__mpu.a(arm_mpu.c.obj)
                0x0000000000001eec                arm_core_mpu_disable
 .text.arm_mpu_init
                0x0000000000001efc       0x64 arch/arch/arm/core/aarch32/cortex_m/mpu/libarch__arm__core__aarch32__cortex_m__mpu.a(arm_mpu.c.obj)
 .text.arm_core_mpu_get_max_available_dyn_regions
                0x0000000000001f60       0x10 arch/arch/arm/core/aarch32/cortex_m/mpu/libarch__arm__core__aarch32__cortex_m__mpu.a(arm_mpu.c.obj)
                0x0000000000001f60                arm_core_mpu_get_max_available_dyn_regions
 .text.arm_core_mpu_buffer_validate
                0x0000000000001f70       0xa8 arch/arch/arm/core/aarch32/cortex_m/mpu/libarch__arm__core__aarch32__cortex_m__mpu.a(arm_mpu.c.obj)
                0x0000000000001f70                arm_core_mpu_buffer_validate
 .text.arm_core_mpu_configure_static_mpu_regions
                0x0000000000002018       0x4c arch/arch/arm/core/aarch32/cortex_m/mpu/libarch__arm__core__aarch32__cortex_m__mpu.a(arm_mpu.c.obj)
                0x0000000000002018                arm_core_mpu_configure_static_mpu_regions
 .text.arm_core_mpu_configure_dynamic_mpu_regions
                0x0000000000002064       0x4c arch/arch/arm/core/aarch32/cortex_m/mpu/libarch__arm__core__aarch32__cortex_m__mpu.a(arm_mpu.c.obj)
                0x0000000000002064                arm_core_mpu_configure_dynamic_mpu_regions
 .text.__stdout_hook_install
                0x00000000000020b0        0xc lib/libc/minimal/liblib__libc__minimal.a(stdout_console.c.obj)
                0x00000000000020b0                __stdout_hook_install
 .text.z_impl_zephyr_fputc
                0x00000000000020bc       0x14 lib/libc/minimal/liblib__libc__minimal.a(stdout_console.c.obj)
                0x00000000000020bc                z_impl_zephyr_fputc
 .text.z_mrsh_zephyr_fputc
                0x00000000000020d0       0x20 lib/libc/minimal/liblib__libc__minimal.a(stdout_console.c.obj)
                0x00000000000020d0                z_mrsh_zephyr_fputc
 .text.z_impl_zephyr_fwrite
                0x00000000000020f0       0x48 lib/libc/minimal/liblib__libc__minimal.a(stdout_console.c.obj)
                0x00000000000020f0                z_impl_zephyr_fwrite
 .text.z_mrsh_zephyr_fwrite
                0x0000000000002138       0x54 lib/libc/minimal/liblib__libc__minimal.a(stdout_console.c.obj)
                0x0000000000002138                z_mrsh_zephyr_fwrite
 .text.nordicsemi_nrf52_init
                0x000000000000218c       0x30 soc/arm/nordic_nrf/nrf52/libsoc__arm__nordic_nrf__nrf52.a(soc.c.obj)
 .text.arch_busy_wait
                0x00000000000021bc       0x14 soc/arm/nordic_nrf/nrf52/libsoc__arm__nordic_nrf__nrf52.a(soc.c.obj)
                0x00000000000021bc                arch_busy_wait
 .text.gpio_nrfx_init
                0x00000000000021d0       0x30 drivers/gpio/libdrivers__gpio.a(gpio_nrfx.c.obj)
 .text.gpio_nrfx_config
                0x0000000000002200       0xbc drivers/gpio/libdrivers__gpio.a(gpio_nrfx.c.obj)
 .text.gpio_nrfx_pin_interrupt_configure
                0x00000000000022bc      0x1e4 drivers/gpio/libdrivers__gpio.a(gpio_nrfx.c.obj)
 .text.gpiote_event_handler
                0x00000000000024a0      0x148 drivers/gpio/libdrivers__gpio.a(gpio_nrfx.c.obj)
 .text.z_mrsh_gpio_config
                0x00000000000025e8       0x58 drivers/gpio/libdrivers__gpio.a(gpio_handlers.c.obj)
                0x00000000000025e8                z_mrsh_gpio_config
 .text.z_mrsh_gpio_port_get_raw
                0x0000000000002640       0x64 drivers/gpio/libdrivers__gpio.a(gpio_handlers.c.obj)
                0x0000000000002640                z_mrsh_gpio_port_get_raw
 .text.z_mrsh_gpio_port_set_masked_raw
                0x00000000000026a4       0x58 drivers/gpio/libdrivers__gpio.a(gpio_handlers.c.obj)
                0x00000000000026a4                z_mrsh_gpio_port_set_masked_raw
 .text.z_mrsh_gpio_port_set_bits_raw
                0x00000000000026fc       0x4c drivers/gpio/libdrivers__gpio.a(gpio_handlers.c.obj)
                0x00000000000026fc                z_mrsh_gpio_port_set_bits_raw
 .text.z_mrsh_gpio_port_clear_bits_raw
                0x0000000000002748       0x4c drivers/gpio/libdrivers__gpio.a(gpio_handlers.c.obj)
                0x0000000000002748                z_mrsh_gpio_port_clear_bits_raw
 .text.z_mrsh_gpio_port_toggle_bits
                0x0000000000002794       0x4c drivers/gpio/libdrivers__gpio.a(gpio_handlers.c.obj)
                0x0000000000002794                z_mrsh_gpio_port_toggle_bits
 .text.z_mrsh_gpio_pin_interrupt_configure
                0x00000000000027e0       0x70 drivers/gpio/libdrivers__gpio.a(gpio_handlers.c.obj)
                0x00000000000027e0                z_mrsh_gpio_pin_interrupt_configure
 .text.z_mrsh_gpio_get_pending_int
                0x0000000000002850       0x48 drivers/gpio/libdrivers__gpio.a(gpio_handlers.c.obj)
                0x0000000000002850                z_mrsh_gpio_get_pending_int
 .text.uart_nrfx_err_check
                0x0000000000002898       0x10 drivers/serial/libdrivers__serial.a(uart_nrfx_uart.c.obj)
 .text.uart_nrfx_configure
                0x00000000000028a8      0x164 drivers/serial/libdrivers__serial.a(uart_nrfx_uart.c.obj)
 .text.uart_nrfx_poll_in
                0x0000000000002a0c       0x2c drivers/serial/libdrivers__serial.a(uart_nrfx_uart.c.obj)
 .text.uart_nrfx_poll_out
                0x0000000000002a38       0x88 drivers/serial/libdrivers__serial.a(uart_nrfx_uart.c.obj)
 .text.uart_nrfx_init
                0x0000000000002ac0       0x6c drivers/serial/libdrivers__serial.a(uart_nrfx_uart.c.obj)
 .text.z_mrsh_uart_err_check
                0x0000000000002b2c       0x48 drivers/serial/libdrivers__serial.a(uart_handlers.c.obj)
                0x0000000000002b2c                z_mrsh_uart_err_check
 .text.z_mrsh_uart_poll_in
                0x0000000000002b74       0x64 drivers/serial/libdrivers__serial.a(uart_handlers.c.obj)
                0x0000000000002b74                z_mrsh_uart_poll_in
 .text.z_mrsh_uart_poll_out
                0x0000000000002bd8       0x4c drivers/serial/libdrivers__serial.a(uart_handlers.c.obj)
                0x0000000000002bd8                z_mrsh_uart_poll_out
 .text.z_mrsh_uart_config_get
                0x0000000000002c24       0x70 drivers/serial/libdrivers__serial.a(uart_handlers.c.obj)
                0x0000000000002c24                z_mrsh_uart_config_get
 .text.z_mrsh_uart_configure
                0x0000000000002c94       0x70 drivers/serial/libdrivers__serial.a(uart_handlers.c.obj)
                0x0000000000002c94                z_mrsh_uart_configure
 .text.nrf52_errata_12
                0x0000000000002d04       0x40 ../modules/nordic/lib..__modules__hal__nordic.a(system_nrf52.c.obj)
 .text.nrf52_errata_16
                0x0000000000002d44       0x2c ../modules/nordic/lib..__modules__hal__nordic.a(system_nrf52.c.obj)
 .text.SystemInit
                0x0000000000002d70      0x260 ../modules/nordic/lib..__modules__hal__nordic.a(system_nrf52.c.obj)
                0x0000000000002d70                SystemInit
 .text.z_sys_init_run_level
                0x0000000000002fd0       0x34 kernel/libkernel.a(device.c.obj)
                0x0000000000002fd0                z_sys_init_run_level
 .text.z_impl_device_get_binding
                0x0000000000003004       0x48 kernel/libkernel.a(device.c.obj)
                0x0000000000003004                z_impl_device_get_binding
 .text.z_mrsh_device_get_binding
                0x000000000000304c       0x34 kernel/libkernel.a(device.c.obj)
                0x000000000000304c                z_mrsh_device_get_binding
 .text.z_mrsh_z_errno
                0x0000000000003080       0x14 kernel/libkernel.a(errno.c.obj)
                0x0000000000003080                z_mrsh_z_errno
 .text.idle     0x0000000000003094       0x34 kernel/libkernel.a(idle.c.obj)
                0x0000000000003094                idle
 .text.z_bss_zero
                0x00000000000030c8       0x14 kernel/libkernel.a(init.c.obj)
                0x00000000000030c8                z_bss_zero
 .text.z_data_copy
                0x00000000000030dc       0x4c kernel/libkernel.a(init.c.obj)
                0x00000000000030dc                z_data_copy
 .text.bg_thread_main
                0x0000000000003128       0x48 kernel/libkernel.a(init.c.obj)
 .text.z_cstart
                0x0000000000003170      0x104 kernel/libkernel.a(init.c.obj)
                0x0000000000003170                z_cstart
 .text.z_vrfy_k_msgq_alloc_init
                0x0000000000003274       0x3c kernel/libkernel.a(msg_q.c.obj)
                0x0000000000003274                z_vrfy_k_msgq_alloc_init
 .text.z_mrsh_k_msgq_alloc_init
                0x00000000000032b0       0x20 kernel/libkernel.a(msg_q.c.obj)
                0x00000000000032b0                z_mrsh_k_msgq_alloc_init
 .text.z_impl_k_msgq_put
                0x00000000000032d0       0xa8 kernel/libkernel.a(msg_q.c.obj)
                0x00000000000032d0                z_impl_k_msgq_put
 .text.z_mrsh_k_msgq_put
                0x0000000000003378       0x5c kernel/libkernel.a(msg_q.c.obj)
                0x0000000000003378                z_mrsh_k_msgq_put
 .text.z_mrsh_k_msgq_get_attrs
                0x00000000000033d4       0x54 kernel/libkernel.a(msg_q.c.obj)
                0x00000000000033d4                z_mrsh_k_msgq_get_attrs
 .text.z_impl_k_msgq_get
                0x0000000000003428       0xc0 kernel/libkernel.a(msg_q.c.obj)
                0x0000000000003428                z_impl_k_msgq_get
 .text.z_mrsh_k_msgq_get
                0x00000000000034e8       0x5c kernel/libkernel.a(msg_q.c.obj)
                0x00000000000034e8                z_mrsh_k_msgq_get
 .text.z_mrsh_k_msgq_peek
                0x0000000000003544       0x50 kernel/libkernel.a(msg_q.c.obj)
                0x0000000000003544                z_mrsh_k_msgq_peek
 .text.z_mrsh_k_msgq_purge
                0x0000000000003594       0x40 kernel/libkernel.a(msg_q.c.obj)
                0x0000000000003594                z_mrsh_k_msgq_purge
 .text.z_mrsh_k_msgq_num_free_get
                0x00000000000035d4       0x3c kernel/libkernel.a(msg_q.c.obj)
                0x00000000000035d4                z_mrsh_k_msgq_num_free_get
 .text.z_mrsh_k_msgq_num_used_get
                0x0000000000003610       0x3c kernel/libkernel.a(msg_q.c.obj)
                0x0000000000003610                z_mrsh_k_msgq_num_used_get
 .text.z_mrsh_k_mutex_init
                0x000000000000364c       0x40 kernel/libkernel.a(mutex.c.obj)
                0x000000000000364c                z_mrsh_k_mutex_init
 .text.z_impl_k_mutex_lock
                0x000000000000368c      0x10c kernel/libkernel.a(mutex.c.obj)
                0x000000000000368c                z_impl_k_mutex_lock
 .text.z_mrsh_k_mutex_lock
                0x0000000000003798       0x4c kernel/libkernel.a(mutex.c.obj)
                0x0000000000003798                z_mrsh_k_mutex_lock
 .text.z_impl_k_mutex_unlock
                0x00000000000037e4       0x94 kernel/libkernel.a(mutex.c.obj)
                0x00000000000037e4                z_impl_k_mutex_unlock
 .text.z_mrsh_k_mutex_unlock
                0x0000000000003878       0x40 kernel/libkernel.a(mutex.c.obj)
                0x0000000000003878                z_mrsh_k_mutex_unlock
 .text.z_mrsh_k_queue_init
                0x00000000000038b8       0x44 kernel/libkernel.a(queue.c.obj)
                0x00000000000038b8                z_mrsh_k_queue_init
 .text.z_mrsh_k_queue_cancel_wait
                0x00000000000038fc       0x40 kernel/libkernel.a(queue.c.obj)
                0x00000000000038fc                z_mrsh_k_queue_cancel_wait
 .text.z_mrsh_k_queue_alloc_append
                0x000000000000393c       0x44 kernel/libkernel.a(queue.c.obj)
                0x000000000000393c                z_mrsh_k_queue_alloc_append
 .text.z_mrsh_k_queue_alloc_prepend
                0x0000000000003980       0x44 kernel/libkernel.a(queue.c.obj)
                0x0000000000003980                z_mrsh_k_queue_alloc_prepend
 .text.z_impl_k_queue_get
                0x00000000000039c4       0x68 kernel/libkernel.a(queue.c.obj)
                0x00000000000039c4                z_impl_k_queue_get
 .text.z_mrsh_k_queue_get
                0x0000000000003a2c       0x4c kernel/libkernel.a(queue.c.obj)
                0x0000000000003a2c                z_mrsh_k_queue_get
 .text.z_mrsh_k_queue_is_empty
                0x0000000000003a78       0x40 kernel/libkernel.a(queue.c.obj)
                0x0000000000003a78                z_mrsh_k_queue_is_empty
 .text.z_mrsh_k_queue_peek_head
                0x0000000000003ab8       0x40 kernel/libkernel.a(queue.c.obj)
                0x0000000000003ab8                z_mrsh_k_queue_peek_head
 .text.z_mrsh_k_queue_peek_tail
                0x0000000000003af8       0x40 kernel/libkernel.a(queue.c.obj)
                0x0000000000003af8                z_mrsh_k_queue_peek_tail
 .text.z_reset_time_slice
                0x0000000000003b38       0x2c kernel/libkernel.a(sched.c.obj)
                0x0000000000003b38                z_reset_time_slice
 .text.k_sched_time_slice_set
                0x0000000000003b64       0x58 kernel/libkernel.a(sched.c.obj)
                0x0000000000003b64                k_sched_time_slice_set
 .text.k_sched_lock
                0x0000000000003bbc       0x28 kernel/libkernel.a(sched.c.obj)
                0x0000000000003bbc                k_sched_lock
 .text.z_priq_dumb_remove
                0x0000000000003be4       0x2c kernel/libkernel.a(sched.c.obj)
                0x0000000000003be4                z_priq_dumb_remove
 .text.update_cache
                0x0000000000003c10       0x48 kernel/libkernel.a(sched.c.obj)
 .text.k_sched_unlock
                0x0000000000003c58       0x3c kernel/libkernel.a(sched.c.obj)
                0x0000000000003c58                k_sched_unlock
 .text.ready_thread
                0x0000000000003c94       0x68 kernel/libkernel.a(sched.c.obj)
 .text.z_sched_start
                0x0000000000003cfc       0x3c kernel/libkernel.a(sched.c.obj)
                0x0000000000003cfc                z_sched_start
 .text.z_impl_k_thread_resume
                0x0000000000003d38       0x30 kernel/libkernel.a(sched.c.obj)
                0x0000000000003d38                z_impl_k_thread_resume
 .text.z_mrsh_k_thread_resume
                0x0000000000003d68       0x40 kernel/libkernel.a(sched.c.obj)
                0x0000000000003d68                z_mrsh_k_thread_resume
 .text.z_move_thread_to_end_of_prio_q
                0x0000000000003da8       0x8c kernel/libkernel.a(sched.c.obj)
                0x0000000000003da8                z_move_thread_to_end_of_prio_q
 .text.z_time_slice
                0x0000000000003e34       0x6c kernel/libkernel.a(sched.c.obj)
                0x0000000000003e34                z_time_slice
 .text.z_impl_k_thread_suspend
                0x0000000000003ea0       0x68 kernel/libkernel.a(sched.c.obj)
                0x0000000000003ea0                z_impl_k_thread_suspend
 .text.z_mrsh_k_thread_suspend
                0x0000000000003f08       0x40 kernel/libkernel.a(sched.c.obj)
                0x0000000000003f08                z_mrsh_k_thread_suspend
 .text.z_thread_single_abort
                0x0000000000003f48       0xd0 kernel/libkernel.a(sched.c.obj)
                0x0000000000003f48                z_thread_single_abort
 .text.unready_thread
                0x0000000000004018       0x34 kernel/libkernel.a(sched.c.obj)
 .text.z_tick_sleep.part.0
                0x000000000000404c       0x5c kernel/libkernel.a(sched.c.obj)
 .text.pend     0x00000000000040a8       0x4c kernel/libkernel.a(sched.c.obj)
 .text.z_pend_curr
                0x00000000000040f4       0x28 kernel/libkernel.a(sched.c.obj)
                0x00000000000040f4                z_pend_curr
 .text.z_set_prio
                0x000000000000411c       0x88 kernel/libkernel.a(sched.c.obj)
                0x000000000000411c                z_set_prio
 .text.z_thread_priority_set
                0x00000000000041a4       0x20 kernel/libkernel.a(sched.c.obj)
                0x00000000000041a4                z_thread_priority_set
 .text.z_sched_init
                0x00000000000041c4       0x18 kernel/libkernel.a(sched.c.obj)
                0x00000000000041c4                z_sched_init
 .text.z_mrsh_k_thread_priority_get
                0x00000000000041dc       0x3c kernel/libkernel.a(sched.c.obj)
                0x00000000000041dc                z_mrsh_k_thread_priority_get
 .text.z_mrsh_k_thread_priority_set
                0x0000000000004218       0x64 kernel/libkernel.a(sched.c.obj)
                0x0000000000004218                z_mrsh_k_thread_priority_set
 .text.z_impl_k_yield
                0x000000000000427c       0x9c kernel/libkernel.a(sched.c.obj)
                0x000000000000427c                z_impl_k_yield
 .text.z_mrsh_k_yield
                0x0000000000004318       0x20 kernel/libkernel.a(sched.c.obj)
                0x0000000000004318                z_mrsh_k_yield
 .text.z_impl_k_sleep
                0x0000000000004338       0x48 kernel/libkernel.a(sched.c.obj)
                0x0000000000004338                z_impl_k_sleep
 .text.z_mrsh_k_sleep
                0x0000000000004380       0x20 kernel/libkernel.a(sched.c.obj)
                0x0000000000004380                z_mrsh_k_sleep
 .text.z_impl_k_usleep
                0x00000000000043a0       0x48 kernel/libkernel.a(sched.c.obj)
                0x00000000000043a0                z_impl_k_usleep
 .text.z_mrsh_k_usleep
                0x00000000000043e8       0x20 kernel/libkernel.a(sched.c.obj)
                0x00000000000043e8                z_mrsh_k_usleep
 .text.z_mrsh_k_wakeup
                0x0000000000004408       0x40 kernel/libkernel.a(sched.c.obj)
                0x0000000000004408                z_mrsh_k_wakeup
 .text.z_impl_k_current_get
                0x0000000000004448        0xc kernel/libkernel.a(sched.c.obj)
                0x0000000000004448                z_impl_k_current_get
 .text.z_mrsh_k_current_get
                0x0000000000004454       0x10 kernel/libkernel.a(sched.c.obj)
                0x0000000000004454                z_mrsh_k_current_get
 .text.z_impl_k_is_preempt_thread
                0x0000000000004464       0x20 kernel/libkernel.a(sched.c.obj)
                0x0000000000004464                z_impl_k_is_preempt_thread
 .text.z_mrsh_k_is_preempt_thread
                0x0000000000004484       0x20 kernel/libkernel.a(sched.c.obj)
                0x0000000000004484                z_mrsh_k_is_preempt_thread
 .text.z_impl_k_thread_join
                0x00000000000044a4       0x88 kernel/libkernel.a(sched.c.obj)
                0x00000000000044a4                z_impl_k_thread_join
 .text.z_mrsh_k_thread_join
                0x000000000000452c       0x34 kernel/libkernel.a(sched.c.obj)
                0x000000000000452c                z_mrsh_k_thread_join
 .text.z_mrsh_k_thread_abort
                0x0000000000004560       0x40 kernel/libkernel.a(sched.c.obj)
                0x0000000000004560                z_mrsh_k_thread_abort
 .text.z_vrfy_k_sem_init
                0x00000000000045a0       0x38 kernel/libkernel.a(sem.c.obj)
                0x00000000000045a0                z_vrfy_k_sem_init
 .text.z_mrsh_k_sem_init
                0x00000000000045d8       0x20 kernel/libkernel.a(sem.c.obj)
                0x00000000000045d8                z_mrsh_k_sem_init
 .text.z_impl_k_sem_give
                0x00000000000045f8       0x44 kernel/libkernel.a(sem.c.obj)
                0x00000000000045f8                z_impl_k_sem_give
 .text.z_mrsh_k_sem_give
                0x000000000000463c       0x40 kernel/libkernel.a(sem.c.obj)
                0x000000000000463c                z_mrsh_k_sem_give
 .text.z_impl_k_sem_take
                0x000000000000467c       0x54 kernel/libkernel.a(sem.c.obj)
                0x000000000000467c                z_impl_k_sem_take
 .text.z_mrsh_k_sem_take
                0x00000000000046d0       0x4c kernel/libkernel.a(sem.c.obj)
                0x00000000000046d0                z_mrsh_k_sem_take
 .text.z_mrsh_k_sem_reset
                0x000000000000471c       0x38 kernel/libkernel.a(sem.c.obj)
                0x000000000000471c                z_mrsh_k_sem_reset
 .text.z_mrsh_k_sem_count_get
                0x0000000000004754       0x3c kernel/libkernel.a(sem.c.obj)
                0x0000000000004754                z_mrsh_k_sem_count_get
 .text.z_mrsh_k_stack_alloc_init
                0x0000000000004790       0x48 kernel/libkernel.a(stack.c.obj)
                0x0000000000004790                z_mrsh_k_stack_alloc_init
 .text.z_mrsh_k_stack_push
                0x00000000000047d8       0x44 kernel/libkernel.a(stack.c.obj)
                0x00000000000047d8                z_mrsh_k_stack_push
 .text.z_impl_k_stack_pop
                0x000000000000481c       0x6c kernel/libkernel.a(stack.c.obj)
                0x000000000000481c                z_impl_k_stack_pop
 .text.z_mrsh_k_stack_pop
                0x0000000000004888       0x5c kernel/libkernel.a(stack.c.obj)
                0x0000000000004888                z_mrsh_k_stack_pop
 .text.schedule_new_thread
                0x00000000000048e4       0x20 kernel/libkernel.a(thread.c.obj)
 .text.z_mrsh_k_busy_wait
                0x0000000000004904       0x20 kernel/libkernel.a(thread.c.obj)
                0x0000000000004904                z_mrsh_k_busy_wait
 .text.z_mrsh_k_thread_name_set
                0x0000000000004924       0x14 kernel/libkernel.a(thread.c.obj)
                0x0000000000004924                z_mrsh_k_thread_name_set
 .text.z_mrsh_k_thread_name_copy
                0x0000000000004938       0x14 kernel/libkernel.a(thread.c.obj)
                0x0000000000004938                z_mrsh_k_thread_name_copy
 .text.z_mrsh_k_thread_start
                0x000000000000494c       0x40 kernel/libkernel.a(thread.c.obj)
                0x000000000000494c                z_mrsh_k_thread_start
 .text.z_setup_new_thread
                0x000000000000498c       0xd8 kernel/libkernel.a(thread.c.obj)
                0x000000000000498c                z_setup_new_thread
 .text.z_vrfy_k_thread_create
                0x0000000000004a64       0xb4 kernel/libkernel.a(thread.c.obj)
                0x0000000000004a64                z_vrfy_k_thread_create
 .text.z_mrsh_k_thread_create
                0x0000000000004b18       0x70 kernel/libkernel.a(thread.c.obj)
                0x0000000000004b18                z_mrsh_k_thread_create
 .text.z_init_static_threads
                0x0000000000004b88       0xd0 kernel/libkernel.a(thread.c.obj)
                0x0000000000004b88                z_init_static_threads
 .text.z_mrsh_k_float_disable
                0x0000000000004c58       0x38 kernel/libkernel.a(thread.c.obj)
                0x0000000000004c58                z_mrsh_k_float_disable
 .text.z_mrsh_k_thread_timeout_remaining_ticks
                0x0000000000004c90       0x40 kernel/libkernel.a(thread.c.obj)
                0x0000000000004c90                z_mrsh_k_thread_timeout_remaining_ticks
 .text.z_mrsh_k_thread_timeout_expires_ticks
                0x0000000000004cd0       0x40 kernel/libkernel.a(thread.c.obj)
                0x0000000000004cd0                z_mrsh_k_thread_timeout_expires_ticks
 .text.k_work_q_start
                0x0000000000004d10       0x4c kernel/libkernel.a(work_q.c.obj)
                0x0000000000004d10                k_work_q_start
 .text.elapsed  0x0000000000004d5c       0x14 kernel/libkernel.a(timeout.c.obj)
 .text.remove_timeout
                0x0000000000004d70       0x34 kernel/libkernel.a(timeout.c.obj)
 .text.next_timeout
                0x0000000000004da4       0x34 kernel/libkernel.a(timeout.c.obj)
 .text.timeout_rem
                0x0000000000004dd8       0x4c kernel/libkernel.a(timeout.c.obj)
 .text.z_add_timeout
                0x0000000000004e24      0x110 kernel/libkernel.a(timeout.c.obj)
                0x0000000000004e24                z_add_timeout
 .text.z_timeout_expires
                0x0000000000004f34       0x30 kernel/libkernel.a(timeout.c.obj)
                0x0000000000004f34                z_timeout_expires
 .text.z_clock_announce
                0x0000000000004f64       0xdc kernel/libkernel.a(timeout.c.obj)
                0x0000000000004f64                z_clock_announce
 .text.z_tick_get
                0x0000000000005040       0x34 kernel/libkernel.a(timeout.c.obj)
                0x0000000000005040                z_tick_get
 .text.z_mrsh_k_uptime_ticks
                0x0000000000005074       0x48 kernel/libkernel.a(timeout.c.obj)
                0x0000000000005074                z_mrsh_k_uptime_ticks
 .text.z_timer_expiration_handler
                0x00000000000050bc       0x4c kernel/libkernel.a(timer.c.obj)
                0x00000000000050bc                z_timer_expiration_handler
 .text.z_impl_k_timer_start
                0x0000000000005108       0xb8 kernel/libkernel.a(timer.c.obj)
                0x0000000000005108                z_impl_k_timer_start
 .text.z_mrsh_k_timer_start
                0x00000000000051c0       0x58 kernel/libkernel.a(timer.c.obj)
                0x00000000000051c0                z_mrsh_k_timer_start
 .text.z_mrsh_k_timer_stop
                0x0000000000005218       0x40 kernel/libkernel.a(timer.c.obj)
                0x0000000000005218                z_mrsh_k_timer_stop
 .text.z_mrsh_k_timer_status_get
                0x0000000000005258       0x40 kernel/libkernel.a(timer.c.obj)
                0x0000000000005258                z_mrsh_k_timer_status_get
 .text.z_impl_k_timer_status_sync
                0x0000000000005298       0x58 kernel/libkernel.a(timer.c.obj)
                0x0000000000005298                z_impl_k_timer_status_sync
 .text.z_mrsh_k_timer_status_sync
                0x00000000000052f0       0x40 kernel/libkernel.a(timer.c.obj)
                0x00000000000052f0                z_mrsh_k_timer_status_sync
 .text.z_mrsh_k_timer_remaining_ticks
                0x0000000000005330       0x40 kernel/libkernel.a(timer.c.obj)
                0x0000000000005330                z_mrsh_k_timer_remaining_ticks
 .text.z_mrsh_k_timer_expires_ticks
                0x0000000000005370       0x40 kernel/libkernel.a(timer.c.obj)
                0x0000000000005370                z_mrsh_k_timer_expires_ticks
 .text.z_mrsh_k_timer_user_data_get
                0x00000000000053b0       0x3c kernel/libkernel.a(timer.c.obj)
                0x00000000000053b0                z_mrsh_k_timer_user_data_get
 .text.z_mrsh_k_timer_user_data_set
                0x00000000000053ec       0x3c kernel/libkernel.a(timer.c.obj)
                0x00000000000053ec                z_mrsh_k_timer_user_data_set
 .text.z_mrsh_k_futex_wake
                0x0000000000005428       0x40 kernel/libkernel.a(futex.c.obj)
                0x0000000000005428                z_mrsh_k_futex_wake
 .text.z_mrsh_k_futex_wait
                0x0000000000005468       0x48 kernel/libkernel.a(futex.c.obj)
                0x0000000000005468                z_mrsh_k_futex_wait
 .text.init_mem_domain_module
                0x00000000000054b0       0x14 kernel/libkernel.a(mem_domain.c.obj)
 .text.app_shmem_bss_zero
                0x00000000000054c4       0x24 kernel/libkernel.a(userspace.c.obj)
 .text.z_thread_perms_inherit
                0x00000000000054e8       0x34 kernel/libkernel.a(userspace.c.obj)
                0x00000000000054e8                z_thread_perms_inherit
 .text.z_thread_perms_all_clear
                0x000000000000551c       0x1c kernel/libkernel.a(userspace.c.obj)
                0x000000000000551c                z_thread_perms_all_clear
 .text.z_object_validate
                0x0000000000005538       0x74 kernel/libkernel.a(userspace.c.obj)
                0x0000000000005538                z_object_validate
 .text.z_thread_malloc
                0x00000000000055ac       0x30 kernel/libkernel.a(mempool.c.obj)
                0x00000000000055ac                z_thread_malloc
 .text.z_mrsh_k_object_access_grant
                0x00000000000055dc       0x50 kernel/libkernel.a(userspace_handler.c.obj)
                0x00000000000055dc                z_mrsh_k_object_access_grant
 .text.z_mrsh_k_object_release
                0x000000000000562c       0x34 kernel/libkernel.a(userspace_handler.c.obj)
                0x000000000000562c                z_mrsh_k_object_release
 .text.z_mrsh_k_object_alloc
                0x0000000000005660       0x10 kernel/libkernel.a(userspace_handler.c.obj)
                0x0000000000005660                z_mrsh_k_object_alloc
 .text.statics_init
                0x0000000000005670       0x24 kernel/libkernel.a(kheap.c.obj)
 .text.arch_is_user_context
                0x0000000000005694       0x14 ../app/libapp.a(main.c.obj)
 .text.k_sleep  0x00000000000056a8       0x20 ../app/libapp.a(main.c.obj)
 .text.gpio_pin_configure.constprop.0
                0x00000000000056c8       0x48 ../app/libapp.a(main.c.obj)
 .text.k_thread_create.constprop.0
                0x0000000000005710       0x5a ../app/libapp.a(main.c.obj)
 .text.k_thread_name_set
                0x000000000000576a       0x20 ../app/libapp.a(main.c.obj)
 .text.gpio_port_set_bits_raw
                0x000000000000578a       0x22 ../app/libapp.a(main.c.obj)
 .text.gpio_port_clear_bits_raw
                0x00000000000057ac       0x22 ../app/libapp.a(main.c.obj)
 .text.k_thread_suspend
                0x00000000000057ce       0x20 ../app/libapp.a(main.c.obj)
 .text.sys_notify_validate
                0x00000000000057ee       0x22 libzephyr.a(notify.c.obj)
                0x00000000000057ee                sys_notify_validate
 .text.sys_notify_finalize
                0x0000000000005810       0x1a libzephyr.a(notify.c.obj)
                0x0000000000005810                sys_notify_finalize
 .text.arch_is_user_context
                0x000000000000582a       0x14 libzephyr.a(printk.c.obj)
 .text.arch_printk_char_out
                0x000000000000583e        0x4 libzephyr.a(printk.c.obj)
                0x000000000000583e                arch_printk_char_out
 .text.buf_flush
                0x0000000000005842       0x28 libzephyr.a(printk.c.obj)
 .text.buf_char_out
                0x000000000000586a       0x22 libzephyr.a(printk.c.obj)
 .text.printk   0x000000000000588c       0x1a libzephyr.a(printk.c.obj)
                0x000000000000588c                printk
 .text.process_recheck
                0x00000000000058a6       0x38 libzephyr.a(onoff.c.obj)
 .text.validate_args
                0x00000000000058de       0x1e libzephyr.a(onoff.c.obj)
 .text.transition_complete
                0x00000000000058fc       0x1c libzephyr.a(onoff.c.obj)
 .text.onoff_manager_init
                0x0000000000005918       0x26 libzephyr.a(onoff.c.obj)
                0x0000000000005918                onoff_manager_init
 .text.onoff_request
                0x000000000000593e       0xa0 libzephyr.a(onoff.c.obj)
                0x000000000000593e                onoff_request
 .text.z_thread_entry
                0x00000000000059de       0x3c libzephyr.a(thread_entry.c.obj)
                0x00000000000059de                z_thread_entry
 .text.arch_is_user_context
                0x0000000000005a1a       0x14 libzephyr.a(work_q.c.obj)
 .text.z_work_q_main
                0x0000000000005a2e       0x64 libzephyr.a(work_q.c.obj)
                0x0000000000005a2e                z_work_q_main
 .text.chunk_field
                0x0000000000005a92       0x16 libzephyr.a(heap.c.obj)
 .text.chunk_set
                0x0000000000005aa8       0x16 libzephyr.a(heap.c.obj)
 .text.chunk_size
                0x0000000000005abe        0xc libzephyr.a(heap.c.obj)
 .text.set_chunk_used
                0x0000000000005aca       0x30 libzephyr.a(heap.c.obj)
 .text.set_chunk_size
                0x0000000000005afa        0x8 libzephyr.a(heap.c.obj)
 .text.bucket_idx
                0x0000000000005b02       0x1a libzephyr.a(heap.c.obj)
 .text.merge_chunks
                0x0000000000005b1c       0x3c libzephyr.a(heap.c.obj)
 .text.split_chunks
                0x0000000000005b58       0x4e libzephyr.a(heap.c.obj)
 .text.free_list_remove_bidx
                0x0000000000005ba6       0x5e libzephyr.a(heap.c.obj)
 .text.free_list_remove
                0x0000000000005c04       0x2e libzephyr.a(heap.c.obj)
 .text.alloc_chunk
                0x0000000000005c32       0x82 libzephyr.a(heap.c.obj)
 .text.free_list_add
                0x0000000000005cb4       0x8a libzephyr.a(heap.c.obj)
 .text.sys_heap_free
                0x0000000000005d3e       0xaa libzephyr.a(heap.c.obj)
                0x0000000000005d3e                sys_heap_free
 .text.sys_heap_alloc
                0x0000000000005de8       0x68 libzephyr.a(heap.c.obj)
                0x0000000000005de8                sys_heap_alloc
 .text.sys_heap_init
                0x0000000000005e50       0xa4 libzephyr.a(heap.c.obj)
                0x0000000000005e50                sys_heap_init
 .text.arch_is_user_context
                0x0000000000005ef4       0x14 libzephyr.a(mutex.c.obj)
 .text.z_impl_z_sys_mutex_kernel_lock
                0x0000000000005f08       0x40 libzephyr.a(mutex.c.obj)
                0x0000000000005f08                z_impl_z_sys_mutex_kernel_lock
 .text._ConfigAbsSyms
                0x0000000000005f48        0x2 libzephyr.a(configs.c.obj)
                0x0000000000005f48                _ConfigAbsSyms
 .text.uart_poll_out
                0x0000000000005f4a       0x34 libzephyr.a(uart_console.c.obj)
 .text.arch_is_user_context
                0x0000000000005f7e       0x14 libzephyr.a(nrf_power_clock.c.obj)
 .text.get_status
                0x0000000000005f92       0x12 libzephyr.a(nrf_power_clock.c.obj)
 .text.set_off_state
                0x0000000000005fa4       0x32 libzephyr.a(nrf_power_clock.c.obj)
 .text.set_starting_state
                0x0000000000005fd6       0x3c libzephyr.a(nrf_power_clock.c.obj)
 .text.set_on_state
                0x0000000000006012       0x26 libzephyr.a(nrf_power_clock.c.obj)
 .text.onoff_started_callback
                0x0000000000006038       0x12 libzephyr.a(nrf_power_clock.c.obj)
 .text.blocking_start_callback
                0x000000000000604a       0x1e libzephyr.a(nrf_power_clock.c.obj)
 .text.lfclk_spinwait
                0x0000000000006068       0x1a libzephyr.a(nrf_power_clock.c.obj)
 .text.api_stop
                0x0000000000006082       0x28 libzephyr.a(nrf_power_clock.c.obj)
 .text.api_start
                0x00000000000060aa       0x3c libzephyr.a(nrf_power_clock.c.obj)
 .text.z_clock_isr
                0x00000000000060e6        0x2 libzephyr.a(sys_clock_init.c.obj)
                0x00000000000060e6                z_clock_isr
 .text.z_clock_idle_exit
                0x00000000000060e8        0x2 libzephyr.a(sys_clock_init.c.obj)
                0x00000000000060e8                z_clock_idle_exit
 .text.SEGGER_RTT_Init
                0x00000000000060ea        0x4 libzephyr.a(SEGGER_RTT.c.obj)
                0x00000000000060ea                SEGGER_RTT_Init
 .text.rtt_init
                0x00000000000060ee        0xa libzephyr.a(SEGGER_RTT_zephyr.c.obj)
 .text.z_irq_spurious
                0x00000000000060f8        0x8 arch/arch/arm/core/aarch32/libarch__arm__core__aarch32.a(irq_manage.c.obj)
                0x00000000000060f8                z_irq_spurious
 .text.arch_is_user_context
                0x0000000000006100       0x14 arch/arch/arm/core/aarch32/libarch__arm__core__aarch32.a(fatal.c.obj)
 .text.z_arm_fatal_error
                0x0000000000006114       0x20 arch/arch/arm/core/aarch32/libarch__arm__core__aarch32.a(fatal.c.obj)
                0x0000000000006114                z_arm_fatal_error
 .text.z_do_kernel_oops
                0x0000000000006134       0x18 arch/arch/arm/core/aarch32/libarch__arm__core__aarch32.a(fatal.c.obj)
                0x0000000000006134                z_do_kernel_oops
 .text.arch_syscall_oops
                0x000000000000614c       0x1c arch/arch/arm/core/aarch32/libarch__arm__core__aarch32.a(fatal.c.obj)
                0x000000000000614c                arch_syscall_oops
 .text.z_arm_nmi
                0x0000000000006168        0xe arch/arch/arm/core/aarch32/libarch__arm__core__aarch32.a(nmi.c.obj)
                0x0000000000006168                z_arm_nmi
 .text.arch_is_user_context
                0x0000000000006176       0x14 arch/arch/arm/core/aarch32/cortex_m/libarch__arm__core__aarch32__cortex_m.a(fault.c.obj)
 .text.arch_is_user_context
                0x000000000000618a       0x14 arch/arch/arm/core/aarch32/cortex_m/mpu/libarch__arm__core__aarch32__cortex_m__mpu.a(arm_core_mpu.c.obj)
 .text.arch_mem_domain_max_partitions_get
                0x000000000000619e        0xa arch/arch/arm/core/aarch32/cortex_m/mpu/libarch__arm__core__aarch32__cortex_m__mpu.a(arm_core_mpu.c.obj)
                0x000000000000619e                arch_mem_domain_max_partitions_get
 .text.arch_buffer_validate
                0x00000000000061a8        0x4 arch/arch/arm/core/aarch32/cortex_m/mpu/libarch__arm__core__aarch32__cortex_m__mpu.a(arm_core_mpu.c.obj)
                0x00000000000061a8                arch_buffer_validate
 .text.arch_is_user_context
                0x00000000000061ac       0x14 arch/arch/arm/core/aarch32/cortex_m/mpu/libarch__arm__core__aarch32__cortex_m__mpu.a(arm_mpu.c.obj)
 .text.strcpy   0x00000000000061c0       0x14 lib/libc/minimal/liblib__libc__minimal.a(string.c.obj)
                0x00000000000061c0                strcpy
 .text.strcmp   0x00000000000061d4       0x18 lib/libc/minimal/liblib__libc__minimal.a(string.c.obj)
                0x00000000000061d4                strcmp
 .text.memcpy   0x00000000000061ec       0x56 lib/libc/minimal/liblib__libc__minimal.a(string.c.obj)
                0x00000000000061ec                memcpy
 .text.memset   0x0000000000006242       0x46 lib/libc/minimal/liblib__libc__minimal.a(string.c.obj)
                0x0000000000006242                memset
 .text.arch_is_user_context
                0x0000000000006288       0x14 lib/libc/minimal/liblib__libc__minimal.a(stdout_console.c.obj)
 .text._stdout_hook_default
                0x000000000000629c        0x6 lib/libc/minimal/liblib__libc__minimal.a(stdout_console.c.obj)
 .text.z_platform_init
                0x00000000000062a2        0x4 soc/arm/nordic_nrf/nrf52/libsoc__arm__nordic_nrf__nrf52.a(soc.c.obj)
                0x00000000000062a2                z_platform_init
 .text.gpio_nrfx_port_get_raw
                0x00000000000062a6        0xe drivers/gpio/libdrivers__gpio.a(gpio_nrfx.c.obj)
 .text.gpio_nrfx_port_set_masked_raw
                0x00000000000062b4       0x16 drivers/gpio/libdrivers__gpio.a(gpio_nrfx.c.obj)
 .text.gpio_nrfx_port_set_bits_raw
                0x00000000000062ca        0xc drivers/gpio/libdrivers__gpio.a(gpio_nrfx.c.obj)
 .text.gpio_nrfx_port_clear_bits_raw
                0x00000000000062d6        0xc drivers/gpio/libdrivers__gpio.a(gpio_nrfx.c.obj)
 .text.gpio_nrfx_port_toggle_bits
                0x00000000000062e2       0x12 drivers/gpio/libdrivers__gpio.a(gpio_nrfx.c.obj)
 .text.gpio_nrfx_manage_callback
                0x00000000000062f4       0x56 drivers/gpio/libdrivers__gpio.a(gpio_nrfx.c.obj)
 .text.arch_is_user_context
                0x000000000000634a       0x14 drivers/gpio/libdrivers__gpio.a(gpio_handlers.c.obj)
 .text.uart_nrfx_config_get
                0x000000000000635e       0x10 drivers/serial/libdrivers__serial.a(uart_nrfx_uart.c.obj)
 .text.arch_is_user_context
                0x000000000000636e       0x14 drivers/serial/libdrivers__serial.a(uart_handlers.c.obj)
 .text.nrfx_busy_wait
                0x0000000000006382       0x28 ../modules/nordic/lib..__modules__hal__nordic.a(nrfx_glue.c.obj)
                0x0000000000006382                nrfx_busy_wait
 .text.arch_is_user_context
                0x00000000000063aa       0x14 kernel/libkernel.a(fatal.c.obj)
 .text.arch_system_halt
                0x00000000000063be       0x12 kernel/libkernel.a(fatal.c.obj)
                0x00000000000063be                arch_system_halt
 .text.k_sys_fatal_error_handler
                0x00000000000063d0        0xe kernel/libkernel.a(fatal.c.obj)
                0x00000000000063d0                k_sys_fatal_error_handler
 .text.z_fatal_error
                0x00000000000063de       0x4c kernel/libkernel.a(fatal.c.obj)
                0x00000000000063de                z_fatal_error
 .text.z_sys_power_save_idle_exit
                0x000000000000642a        0x4 kernel/libkernel.a(idle.c.obj)
                0x000000000000642a                z_sys_power_save_idle_exit
 .text.arch_is_user_context
                0x000000000000642e       0x14 kernel/libkernel.a(msg_q.c.obj)
 .text.k_msgq_init
                0x0000000000006442       0x24 kernel/libkernel.a(msg_q.c.obj)
                0x0000000000006442                k_msgq_init
 .text.z_impl_k_msgq_alloc_init
                0x0000000000006466       0x3c kernel/libkernel.a(msg_q.c.obj)
                0x0000000000006466                z_impl_k_msgq_alloc_init
 .text.z_impl_k_msgq_peek
                0x00000000000064a2       0x34 kernel/libkernel.a(msg_q.c.obj)
                0x00000000000064a2                z_impl_k_msgq_peek
 .text.z_impl_k_msgq_purge
                0x00000000000064d6       0x42 kernel/libkernel.a(msg_q.c.obj)
                0x00000000000064d6                z_impl_k_msgq_purge
 .text.arch_is_user_context
                0x0000000000006518       0x14 kernel/libkernel.a(mutex.c.obj)
 .text.adjust_owner_prio.isra.0
                0x000000000000652c       0x20 kernel/libkernel.a(mutex.c.obj)
 .text.z_impl_k_mutex_init
                0x000000000000654c       0x14 kernel/libkernel.a(mutex.c.obj)
                0x000000000000654c                z_impl_k_mutex_init
 .text.arch_is_user_context
                0x0000000000006560       0x14 kernel/libkernel.a(queue.c.obj)
 .text.queue_insert
                0x0000000000006574       0xba kernel/libkernel.a(queue.c.obj)
 .text.z_queue_node_peek
                0x000000000000662e       0x18 kernel/libkernel.a(queue.c.obj)
                0x000000000000662e                z_queue_node_peek
 .text.z_impl_k_queue_init
                0x0000000000006646       0x12 kernel/libkernel.a(queue.c.obj)
                0x0000000000006646                z_impl_k_queue_init
 .text.z_impl_k_queue_cancel_wait
                0x0000000000006658       0x36 kernel/libkernel.a(queue.c.obj)
                0x0000000000006658                z_impl_k_queue_cancel_wait
 .text.k_queue_append
                0x000000000000668e        0xa kernel/libkernel.a(queue.c.obj)
                0x000000000000668e                k_queue_append
 .text.z_impl_k_queue_alloc_append
                0x0000000000006698        0xa kernel/libkernel.a(queue.c.obj)
                0x0000000000006698                z_impl_k_queue_alloc_append
 .text.z_impl_k_queue_alloc_prepend
                0x00000000000066a2        0xa kernel/libkernel.a(queue.c.obj)
                0x00000000000066a2                z_impl_k_queue_alloc_prepend
 .text.arch_is_user_context
                0x00000000000066ac       0x14 kernel/libkernel.a(sched.c.obj)
 .text.thread_obj_validate
                0x00000000000066c0       0x1a kernel/libkernel.a(sched.c.obj)
 .text.z_find_first_thread_to_unpend
                0x00000000000066da       0x20 kernel/libkernel.a(sched.c.obj)
                0x00000000000066da                z_find_first_thread_to_unpend
 .text.z_unpend_thread_no_timeout
                0x00000000000066fa       0x32 kernel/libkernel.a(sched.c.obj)
                0x00000000000066fa                z_unpend_thread_no_timeout
 .text.z_reschedule
                0x000000000000672c       0x16 kernel/libkernel.a(sched.c.obj)
                0x000000000000672c                z_reschedule
 .text.z_reschedule_irqlock
                0x0000000000006742       0x18 kernel/libkernel.a(sched.c.obj)
                0x0000000000006742                z_reschedule_irqlock
 .text.z_reschedule_unlocked
                0x000000000000675a       0x14 kernel/libkernel.a(sched.c.obj)
 .text.z_unpend_thread
                0x000000000000676e       0x3a kernel/libkernel.a(sched.c.obj)
                0x000000000000676e                z_unpend_thread
 .text.z_priq_dumb_best
                0x00000000000067a8       0x14 kernel/libkernel.a(sched.c.obj)
                0x00000000000067a8                z_priq_dumb_best
 .text.z_ready_thread
                0x00000000000067bc       0x20 kernel/libkernel.a(sched.c.obj)
                0x00000000000067bc                z_ready_thread
 .text.z_thread_timeout
                0x00000000000067dc       0x56 kernel/libkernel.a(sched.c.obj)
                0x00000000000067dc                z_thread_timeout
 .text.z_remove_thread_from_ready_q
                0x0000000000006832       0x20 kernel/libkernel.a(sched.c.obj)
                0x0000000000006832                z_remove_thread_from_ready_q
 .text.add_to_waitq_locked
                0x0000000000006852       0x56 kernel/libkernel.a(sched.c.obj)
 .text.z_unpend_first_thread
                0x00000000000068a8       0x5a kernel/libkernel.a(sched.c.obj)
                0x00000000000068a8                z_unpend_first_thread
 .text.z_unpend_all
                0x0000000000006902       0x20 kernel/libkernel.a(sched.c.obj)
                0x0000000000006902                z_unpend_all
 .text.z_impl_k_wakeup
                0x0000000000006922       0x38 kernel/libkernel.a(sched.c.obj)
                0x0000000000006922                z_impl_k_wakeup
 .text.arch_is_user_context
                0x000000000000695a       0x14 kernel/libkernel.a(sem.c.obj)
 .text.z_impl_k_sem_init
                0x000000000000696e       0x1e kernel/libkernel.a(sem.c.obj)
                0x000000000000696e                z_impl_k_sem_init
 .text.arch_is_user_context
                0x000000000000698c       0x14 kernel/libkernel.a(stack.c.obj)
 .text.k_stack_init
                0x00000000000069a0       0x12 kernel/libkernel.a(stack.c.obj)
                0x00000000000069a0                k_stack_init
 .text.z_impl_k_stack_alloc_init
                0x00000000000069b2       0x26 kernel/libkernel.a(stack.c.obj)
                0x00000000000069b2                z_impl_k_stack_alloc_init
 .text.z_impl_k_stack_push
                0x00000000000069d8       0x5e kernel/libkernel.a(stack.c.obj)
                0x00000000000069d8                z_impl_k_stack_push
 .text.arch_is_user_context
                0x0000000000006a36       0x14 kernel/libkernel.a(thread.c.obj)
 .text.k_is_in_isr
                0x0000000000006a4a        0xc kernel/libkernel.a(thread.c.obj)
                0x0000000000006a4a                k_is_in_isr
 .text.z_impl_k_busy_wait
                0x0000000000006a56        0x4 kernel/libkernel.a(thread.c.obj)
                0x0000000000006a56                z_impl_k_busy_wait
 .text.z_impl_k_thread_name_set
                0x0000000000006a5a        0x6 kernel/libkernel.a(thread.c.obj)
                0x0000000000006a5a                z_impl_k_thread_name_set
 .text.z_stack_is_user_capable
                0x0000000000006a60        0xe kernel/libkernel.a(thread.c.obj)
                0x0000000000006a60                z_stack_is_user_capable
 .text.z_impl_k_thread_create
                0x0000000000006a6e       0x40 kernel/libkernel.a(thread.c.obj)
                0x0000000000006a6e                z_impl_k_thread_create
 .text.z_abort_timeout
                0x0000000000006aae       0x2c kernel/libkernel.a(timeout.c.obj)
                0x0000000000006aae                z_abort_timeout
 .text.z_timeout_remaining
                0x0000000000006ada       0x20 kernel/libkernel.a(timeout.c.obj)
                0x0000000000006ada                z_timeout_remaining
 .text.z_get_next_timeout_expiry
                0x0000000000006afa       0x20 kernel/libkernel.a(timeout.c.obj)
                0x0000000000006afa                z_get_next_timeout_expiry
 .text.z_set_timeout_expiry
                0x0000000000006b1a       0x34 kernel/libkernel.a(timeout.c.obj)
                0x0000000000006b1a                z_set_timeout_expiry
 .text.z_tick_get_32
                0x0000000000006b4e        0x8 kernel/libkernel.a(timeout.c.obj)
                0x0000000000006b4e                z_tick_get_32
 .text.z_timeout_end_calc
                0x0000000000006b56       0x52 kernel/libkernel.a(timeout.c.obj)
                0x0000000000006b56                z_timeout_end_calc
 .text.arch_is_user_context
                0x0000000000006ba8       0x14 kernel/libkernel.a(timer.c.obj)
 .text.k_timer_init
                0x0000000000006bbc       0x1a kernel/libkernel.a(timer.c.obj)
                0x0000000000006bbc                k_timer_init
 .text.z_impl_k_timer_stop
                0x0000000000006bd6       0x44 kernel/libkernel.a(timer.c.obj)
                0x0000000000006bd6                z_impl_k_timer_stop
 .text.z_impl_k_timer_status_get
                0x0000000000006c1a       0x22 kernel/libkernel.a(timer.c.obj)
                0x0000000000006c1a                z_impl_k_timer_status_get
 .text.arch_is_user_context
                0x0000000000006c3c       0x14 kernel/libkernel.a(futex.c.obj)
 .text.z_impl_k_futex_wake
                0x0000000000006c50       0x5a kernel/libkernel.a(futex.c.obj)
                0x0000000000006c50                z_impl_k_futex_wake
 .text.z_impl_k_futex_wait
                0x0000000000006caa       0x66 kernel/libkernel.a(futex.c.obj)
                0x0000000000006caa                z_impl_k_futex_wait
 .text.k_mem_domain_add_thread
                0x0000000000006d10       0x40 kernel/libkernel.a(mem_domain.c.obj)
                0x0000000000006d10                k_mem_domain_add_thread
 .text.arch_is_user_context
                0x0000000000006d50       0x14 kernel/libkernel.a(userspace.c.obj)
 .text.unref_check
                0x0000000000006d64       0x36 kernel/libkernel.a(userspace.c.obj)
 .text.wordlist_cb
                0x0000000000006d9a       0x38 kernel/libkernel.a(userspace.c.obj)
 .text.clear_perms_cb
                0x0000000000006dd2        0x4 kernel/libkernel.a(userspace.c.obj)
 .text.thread_index_get
                0x0000000000006dd6       0x12 kernel/libkernel.a(userspace.c.obj)
 .text.handler_bad_syscall
                0x0000000000006de8        0xc kernel/libkernel.a(userspace.c.obj)
 .text.handler_no_syscall
                0x0000000000006df4        0xc kernel/libkernel.a(userspace.c.obj)
                0x0000000000006df4                z_mrsh_peci_enable
                0x0000000000006df4                z_mrsh_flash_get_write_block_size
                0x0000000000006df4                z_mrsh_z_log_hexdump_from_user
                0x0000000000006df4                z_mrsh_sensor_attr_set
                0x0000000000006df4                z_mrsh_k_thread_custom_data_get
                0x0000000000006df4                z_mrsh_led_on
                0x0000000000006df4                z_mrsh_k_poll_signal_raise
                0x0000000000006df4                z_mrsh_net_eth_get_ptp_clock_by_index
                0x0000000000006df4                z_mrsh_counter_get_guard_period
                0x0000000000006df4                z_mrsh_log_process
                0x0000000000006df4                z_mrsh_adc_read_async
                0x0000000000006df4                z_mrsh_clock_gettime
                0x0000000000006df4                z_mrsh_counter_set_channel_alarm
                0x0000000000006df4                z_mrsh_espi_receive_oob
                0x0000000000006df4                z_mrsh_led_off
                0x0000000000006df4                z_mrsh_log_panic
                0x0000000000006df4                z_mrsh_espi_read_flash
                0x0000000000006df4                z_mrsh_k_pipe_get
                0x0000000000006df4                z_mrsh_net_if_ipv4_set_netmask_by_index
                0x0000000000006df4                z_mrsh_uart_irq_is_pending
                0x0000000000006df4                z_mrsh_uart_tx
                0x0000000000006df4                z_mrsh_uart_mux_find
                0x0000000000006df4                z_mrsh_counter_start
                0x0000000000006df4                z_mrsh_net_if_ipv4_addr_rm_by_index
                0x0000000000006df4                z_mrsh_sensor_sample_fetch_chan
                0x0000000000006df4                z_mrsh_log_buffered_cnt
                0x0000000000006df4                z_mrsh_k_pipe_read_avail
                0x0000000000006df4                z_mrsh_zsock_sendmsg
                0x0000000000006df4                z_mrsh_i2s_trigger
                0x0000000000006df4                z_mrsh_espi_write_flash
                0x0000000000006df4                z_mrsh_counter_get_num_of_channels
                0x0000000000006df4                z_mrsh_eeprom_get_size
                0x0000000000006df4                z_mrsh_atomic_set
                0x0000000000006df4                z_mrsh_ipm_set_enabled
                0x0000000000006df4                z_mrsh_uart_rx_enable
                0x0000000000006df4                z_mrsh_net_addr_ntop
                0x0000000000006df4                z_mrsh_uart_irq_err_enable
                0x0000000000006df4                z_mrsh_zsock_getsockname
                0x0000000000006df4                z_mrsh_zsock_listen
                0x0000000000006df4                z_mrsh_pwm_get_cycles_per_sec
                0x0000000000006df4                z_mrsh_sys_rand_get
                0x0000000000006df4                z_mrsh_can_recover
                0x0000000000006df4                z_mrsh_dma_start
                0x0000000000006df4                z_mrsh_net_if_ipv6_addr_lookup_by_index
                0x0000000000006df4                z_mrsh_ps2_config
                0x0000000000006df4                z_mrsh_wdt_disable
                0x0000000000006df4                z_mrsh_can_send
                0x0000000000006df4                z_mrsh_zsock_sendto
                0x0000000000006df4                z_mrsh_counter_get_frequency
                0x0000000000006df4                z_mrsh_zsock_gethostname
                0x0000000000006df4                z_mrsh_k_poll_signal_check
                0x0000000000006df4                z_mrsh_i2c_configure
                0x0000000000006df4                z_mrsh_ps2_enable_callback
                0x0000000000006df4                z_mrsh_espi_write_lpc_request
                0x0000000000006df4                z_mrsh_uart_irq_tx_enable
                0x0000000000006df4                z_mrsh_uart_irq_rx_enable
                0x0000000000006df4                z_mrsh_zsock_inet_pton
                0x0000000000006df4                z_mrsh_ps2_read
                0x0000000000006df4                z_mrsh_ipm_max_data_size_get
                0x0000000000006df4                z_mrsh_ps2_write
                0x0000000000006df4                z_mrsh_dac_write_value
                0x0000000000006df4                z_mrsh_flash_get_parameters
                0x0000000000006df4                z_mrsh_espi_send_oob
                0x0000000000006df4                z_mrsh_counter_get_max_top_value
                0x0000000000006df4                z_mrsh_espi_send_vwire
                0x0000000000006df4                z_mrsh_net_if_ipv4_addr_lookup_by_index
                0x0000000000006df4                z_mrsh_uart_line_ctrl_get
                0x0000000000006df4                z_mrsh_k_thread_stack_space_get
                0x0000000000006df4                z_mrsh_counter_stop
                0x0000000000006df4                z_mrsh_uart_tx_abort
                0x0000000000006df4                z_mrsh_wdt_setup
                0x0000000000006df4                z_mrsh_i2c_recover_bus
                0x0000000000006df4                z_mrsh_ps2_disable_callback
                0x0000000000006df4                z_mrsh_net_if_ipv6_addr_add_by_index
                0x0000000000006df4                z_mrsh_k_pipe_alloc_init
                0x0000000000006df4                z_mrsh_i2c_transfer
                0x0000000000006df4                z_mrsh_sys_csrand_get
                0x0000000000006df4                z_mrsh_flash_write_protection_set
                0x0000000000006df4                z_mrsh_z_zephyr_read_stdin
                0x0000000000006df4                z_mrsh_net_if_ipv6_addr_rm_by_index
                0x0000000000006df4                z_mrsh_atomic_or
                0x0000000000006df4                z_mrsh_dac_channel_setup
                0x0000000000006df4                z_mrsh_espi_read_request
                0x0000000000006df4                z_mrsh_spi_release
                0x0000000000006df4                z_mrsh_zsock_recvfrom
                0x0000000000006df4                z_mrsh_zsock_bind
                0x0000000000006df4                z_mrsh_flash_get_page_info_by_offs
                0x0000000000006df4                z_mrsh_led_blink
                0x0000000000006df4                z_mrsh_can_detach
                0x0000000000006df4                z_mrsh_maxim_ds3231_get_syncpoint
                0x0000000000006df4                z_mrsh_counter_get_value
                0x0000000000006df4                z_mrsh_i2c_slave_driver_unregister
                0x0000000000006df4                z_mrsh_espi_config
                0x0000000000006df4                z_mrsh_entropy_get_entropy
                0x0000000000006df4                z_mrsh_uart_line_ctrl_set
                0x0000000000006df4                z_mrsh_espi_flash_erase
                0x0000000000006df4                z_mrsh_ipm_send
                0x0000000000006df4                z_mrsh_can_configure
                0x0000000000006df4                z_mrsh_k_poll_signal_reset
                0x0000000000006df4                z_mrsh_zsock_accept
                0x0000000000006df4                z_mrsh_espi_read_lpc_request
                0x0000000000006df4                z_mrsh_zsock_fcntl
                0x0000000000006df4                z_mrsh_net_if_ipv4_addr_add_by_index
                0x0000000000006df4                z_mrsh_atomic_xor
                0x0000000000006df4                z_mrsh_ipm_max_id_val_get
                0x0000000000006df4                z_mrsh_atomic_add
                0x0000000000006df4                z_mrsh_ptp_clock_get
                0x0000000000006df4                z_mrsh_zsock_connect
                0x0000000000006df4                z_mrsh_wdt_feed
                0x0000000000006df4                z_mrsh_zsock_shutdown
                0x0000000000006df4                z_mrsh_zsock_getsockopt
                0x0000000000006df4                z_mrsh_counter_us_to_ticks
                0x0000000000006df4                z_mrsh_sys_rand32_get
                0x0000000000006df4                z_mrsh_atomic_ptr_cas
                0x0000000000006df4                z_mrsh_counter_get_pending_int
                0x0000000000006df4                z_mrsh_adc_channel_setup
                0x0000000000006df4                z_mrsh_zsock_poll
                0x0000000000006df4                z_mrsh_zsock_close
                0x0000000000006df4                z_mrsh_led_set_brightness
                0x0000000000006df4                z_mrsh_atomic_ptr_set
                0x0000000000006df4                z_mrsh_atomic_sub
                0x0000000000006df4                z_mrsh_counter_set_guard_period
                0x0000000000006df4                z_mrsh_net_if_get_by_index
                0x0000000000006df4                z_mrsh_kscan_config
                0x0000000000006df4                z_mrsh_can_attach_msgq
                0x0000000000006df4                z_mrsh_uart_irq_update
                0x0000000000006df4                z_mrsh_zsock_socketpair
                0x0000000000006df4                z_mrsh_can_get_state
                0x0000000000006df4                z_mrsh_k_thread_deadline_set
                0x0000000000006df4                z_mrsh_z_clock_hw_cycles_per_sec_runtime_get
                0x0000000000006df4                z_mrsh_z_log_string_from_user
                0x0000000000006df4                z_mrsh_espi_write_request
                0x0000000000006df4                z_mrsh_peci_config
                0x0000000000006df4                z_mrsh_kscan_enable_callback
                0x0000000000006df4                z_mrsh_spi_transceive
                0x0000000000006df4                z_mrsh_maxim_ds3231_req_syncpoint
                0x0000000000006df4                z_mrsh_flash_get_page_info_by_idx
                0x0000000000006df4                z_mrsh_counter_get_top_value
                0x0000000000006df4                z_mrsh_i2s_buf_read
                0x0000000000006df4                z_mrsh_sensor_attr_get
                0x0000000000006df4                z_mrsh_counter_get_max_relative_alarm
                0x0000000000006df4                z_mrsh_i2s_configure
                0x0000000000006df4                z_mrsh_uart_irq_err_disable
                0x0000000000006df4                z_mrsh_dma_stop
                0x0000000000006df4                z_mrsh_atomic_and
                0x0000000000006df4                z_mrsh_net_if_ipv4_set_gw_by_index
                0x0000000000006df4                z_mrsh_uart_irq_rx_disable
                0x0000000000006df4                z_mrsh_k_pipe_write_avail
                0x0000000000006df4                z_mrsh_flash_erase
                0x0000000000006df4                z_mrsh_pwm_pin_set_cycles
                0x0000000000006df4                z_mrsh_i2c_slave_driver_register
                0x0000000000006df4                z_mrsh_k_thread_custom_data_set
                0x0000000000006df4                z_mrsh_flash_get_page_count
                0x0000000000006df4                z_mrsh_k_poll
                0x0000000000006df4                z_mrsh_zsock_setsockopt
                0x0000000000006df4                z_mrsh_counter_is_counting_up
                0x0000000000006df4                z_mrsh_uart_drv_cmd
                0x0000000000006df4                z_mrsh_log_filter_set
                0x0000000000006df4                z_mrsh_kscan_disable_callback
                0x0000000000006df4                z_mrsh_uart_rx_disable
                0x0000000000006df4                z_mrsh_adc_read
                0x0000000000006df4                z_mrsh_zsock_socket
                0x0000000000006df4                z_mrsh_espi_receive_vwire
                0x0000000000006df4                z_mrsh_peci_disable
                0x0000000000006df4                z_mrsh_counter_cancel_channel_alarm
                0x0000000000006df4                z_mrsh_uart_irq_tx_disable
                0x0000000000006df4                z_mrsh_atomic_nand
                0x0000000000006df4                z_mrsh_counter_set_top_value
                0x0000000000006df4                z_mrsh_sensor_channel_get
                0x0000000000006df4                z_mrsh_i2s_buf_write
                0x0000000000006df4                z_mrsh_atomic_cas
                0x0000000000006df4                z_mrsh_peci_transfer
                0x0000000000006df4                z_mrsh_net_addr_pton
                0x0000000000006df4                z_mrsh_k_pipe_put
                0x0000000000006df4                z_mrsh_sensor_sample_fetch
                0x0000000000006df4                z_mrsh_espi_get_channel_status
                0x0000000000006df4                z_mrsh_z_zsock_getaddrinfo_internal
                0x0000000000006df4                z_mrsh_z_zephyr_write_stdout
                0x0000000000006df4                z_mrsh_zsock_get_context_object
                0x0000000000006df4                z_mrsh_counter_ticks_to_us
                0x0000000000006df4                z_mrsh_flash_write
                0x0000000000006df4                z_mrsh_hwinfo_get_device_id
                0x0000000000006df4                z_mrsh_k_poll_signal_init
                0x0000000000006df4                z_mrsh_flash_read
                0x0000000000006df4                z_mrsh_eeprom_read
                0x0000000000006df4                z_mrsh_eeprom_write
 .text.z_priv_stack_find
                0x0000000000006e00        0xc kernel/libkernel.a(userspace.c.obj)
                0x0000000000006e00                z_priv_stack_find
 .text.z_thread_perms_set
                0x0000000000006e0c       0x28 kernel/libkernel.a(userspace.c.obj)
                0x0000000000006e0c                z_thread_perms_set
 .text.z_thread_perms_clear
                0x0000000000006e34       0x34 kernel/libkernel.a(userspace.c.obj)
                0x0000000000006e34                z_thread_perms_clear
 .text.z_impl_k_object_access_grant
                0x0000000000006e68       0x16 kernel/libkernel.a(userspace.c.obj)
                0x0000000000006e68                z_impl_k_object_access_grant
 .text.z_object_init
                0x0000000000006e7e       0x12 kernel/libkernel.a(userspace.c.obj)
                0x0000000000006e7e                z_object_init
 .text.z_object_uninit
                0x0000000000006e90       0x12 kernel/libkernel.a(userspace.c.obj)
                0x0000000000006e90                z_object_uninit
 .text.z_user_from_copy
                0x0000000000006ea2       0x2c kernel/libkernel.a(userspace.c.obj)
                0x0000000000006ea2                z_user_from_copy
 .text.z_user_string_copy
                0x0000000000006ece       0x40 kernel/libkernel.a(userspace.c.obj)
                0x0000000000006ece                z_user_string_copy
 .text.k_mem_pool_malloc
                0x0000000000006f0e       0x30 kernel/libkernel.a(mempool.c.obj)
                0x0000000000006f0e                k_mem_pool_malloc
 .text.k_free   0x0000000000006f3e        0xa kernel/libkernel.a(mempool.c.obj)
                0x0000000000006f3e                k_free
 .text.arch_is_user_context
                0x0000000000006f48       0x14 kernel/libkernel.a(userspace_handler.c.obj)
 .text.validate_any_object
                0x0000000000006f5c       0x1a kernel/libkernel.a(userspace_handler.c.obj)
 .text.k_heap_init
                0x0000000000006f76       0x10 kernel/libkernel.a(kheap.c.obj)
                0x0000000000006f76                k_heap_init
 .text.k_heap_alloc
                0x0000000000006f86       0x86 kernel/libkernel.a(kheap.c.obj)
                0x0000000000006f86                k_heap_alloc
 .text.k_heap_free
                0x000000000000700c       0x3a kernel/libkernel.a(kheap.c.obj)
                0x000000000000700c                k_heap_free
 .text.k_mem_pool_alloc
                0x0000000000007046       0x32 kernel/libkernel.a(kheap.c.obj)
                0x0000000000007046                k_mem_pool_alloc
 .text.k_mem_pool_free_id
                0x0000000000007078        0x8 kernel/libkernel.a(kheap.c.obj)
                0x0000000000007078                k_mem_pool_free_id
 .text._OffsetAbsSyms
                0x0000000000007080        0x2 CMakeFiles/offsets.dir/arch/arm/core/offsets/offsets.c.obj
                0x0000000000007080                _OffsetAbsSyms
 *(SORT_BY_ALIGNMENT(.gnu.linkonce.t.*))
 *(SORT_BY_ALIGNMENT(.glue_7t))
 .glue_7t       0x0000000000007082        0x0 linker stubs
 *(SORT_BY_ALIGNMENT(.glue_7))
 .glue_7        0x0000000000007082        0x0 linker stubs
 *(SORT_BY_ALIGNMENT(.vfp11_veneer))
 .vfp11_veneer  0x0000000000007082        0x0 linker stubs
 *(SORT_BY_ALIGNMENT(.v4_bx))
 .v4_bx         0x0000000000007082        0x0 linker stubs
                0x0000000000007082                _image_text_end = .

.ARM.exidx      0x0000000000007084        0x8
                0x0000000000007084                __exidx_start = .
 *(SORT_BY_ALIGNMENT(.ARM.exidx*) SORT_BY_ALIGNMENT(gnu.linkonce.armexidx.*))
 .ARM.exidx     0x0000000000007084        0x8 /home/huynhtai/Downloads/ebook_RTOS/Zephyr_SDK/arm-zephyr-eabi/bin/../lib/gcc/arm-zephyr-eabi/9.2.0/thumb/v7e-m/nofp/libgcc.a(_udivmoddi4.o)
                0x000000000000708c                __exidx_end = .
                0x000000000000708c                _image_rodata_start = .

initlevel       0x000000000000708c       0x58
                0x000000000000708c                __init_start = .
                0x000000000000708c                __init_PRE_KERNEL_1_start = .
 *(SORT_BY_NAME(SORT_BY_ALIGNMENT(.init_PRE_KERNEL_1[0-9])))
 .init_PRE_KERNEL_10
                0x000000000000708c        0x8 soc/arm/nordic_nrf/nrf52/libsoc__arm__nordic_nrf__nrf52.a(soc.c.obj)
 *(SORT_BY_NAME(SORT_BY_ALIGNMENT(.init_PRE_KERNEL_1[1-9][0-9])))
 .init_PRE_KERNEL_130
                0x0000000000007094        0x8 libzephyr.a(SEGGER_RTT_zephyr.c.obj)
 .init_PRE_KERNEL_130
                0x000000000000709c        0x8 kernel/libkernel.a(kheap.c.obj)
 .init_PRE_KERNEL_140
                0x00000000000070a4        0x8 arch/arch/arm/core/aarch32/cortex_m/mpu/libarch__arm__core__aarch32__cortex_m__mpu.a(arm_mpu.c.obj)
 .init_PRE_KERNEL_140
                0x00000000000070ac        0x8 kernel/libkernel.a(mem_domain.c.obj)
 .init_PRE_KERNEL_140
                0x00000000000070b4        0x8 kernel/libkernel.a(userspace.c.obj)
 .init_PRE_KERNEL_150
                0x00000000000070bc        0x8 libzephyr.a(nrf_power_clock.c.obj)
 .init_PRE_KERNEL_150
                0x00000000000070c4        0x8 drivers/serial/libdrivers__serial.a(uart_nrfx_uart.c.obj)
 .init_PRE_KERNEL_160
                0x00000000000070cc        0x8 libzephyr.a(uart_console.c.obj)
                0x00000000000070d4                __init_PRE_KERNEL_2_start = .
 *(SORT_BY_NAME(SORT_BY_ALIGNMENT(.init_PRE_KERNEL_2[0-9])))
 .init_PRE_KERNEL_20
                0x00000000000070d4        0x8 libzephyr.a(sys_clock_init.c.obj)
 *(SORT_BY_NAME(SORT_BY_ALIGNMENT(.init_PRE_KERNEL_2[1-9][0-9])))
                0x00000000000070dc                __init_POST_KERNEL_start = .
 *(SORT_BY_NAME(SORT_BY_ALIGNMENT(.init_POST_KERNEL[0-9])))
 *(SORT_BY_NAME(SORT_BY_ALIGNMENT(.init_POST_KERNEL[1-9][0-9])))
 .init_POST_KERNEL40
                0x00000000000070dc        0x8 drivers/gpio/libdrivers__gpio.a(gpio_nrfx.c.obj)
                0x00000000000070e4                __init_APPLICATION_start = .
 *(SORT_BY_NAME(SORT_BY_ALIGNMENT(.init_APPLICATION[0-9])))
 *(SORT_BY_NAME(SORT_BY_ALIGNMENT(.init_APPLICATION[1-9][0-9])))
                0x00000000000070e4                __init_SMP_start = .
 *(SORT_BY_NAME(SORT_BY_ALIGNMENT(.init_SMP[0-9])))
 *(SORT_BY_NAME(SORT_BY_ALIGNMENT(.init_SMP[1-9][0-9])))
                0x00000000000070e4                __init_end = .

sw_isr_table    0x00000000000070e4      0x138
                0x00000000000070e4                . = ALIGN (0x0)
 *(SORT_BY_ALIGNMENT(.gnu.linkonce.sw_isr_table))
 .gnu.linkonce.sw_isr_table
                0x00000000000070e4      0x138 arch/common/libarch__common.a(isr_tables.c.obj)
                0x00000000000070e4                _sw_isr_table

initlevel_error
                0x000000000000708c        0x0
 *(SORT_BY_NAME(SORT_BY_ALIGNMENT(.init_[_A-Z0-9]*)))
                0x0000000000000001                ASSERT ((SIZEOF (initlevel_error) == 0x0), Undefined initialization levels used.)

z_object_assignment_area
                0x000000000000721c        0x0
                0x000000000000721c                _z_object_assignment_list_start = .
 *(SORT_BY_NAME(SORT_BY_ALIGNMENT(._z_object_assignment.static.*)))
                0x000000000000721c                _z_object_assignment_list_end = .

app_shmem_regions
                0x000000000000721c        0x0
                0x000000000000721c                __app_shmem_regions_start = .
 *(SORT_BY_NAME(SORT_BY_ALIGNMENT(.app_regions.*)))
                0x000000000000721c                __app_shmem_regions_end = .

bt_l2cap_fixed_chan_area
                0x000000000000721c        0x0
                0x000000000000721c                _bt_l2cap_fixed_chan_list_start = .
 *(SORT_BY_NAME(SORT_BY_ALIGNMENT(._bt_l2cap_fixed_chan.static.*)))
                0x000000000000721c                _bt_l2cap_fixed_chan_list_end = .

bt_gatt_service_static_area
                0x000000000000721c        0x0
                0x000000000000721c                _bt_gatt_service_static_list_start = .
 *(SORT_BY_NAME(SORT_BY_ALIGNMENT(._bt_gatt_service_static.static.*)))
                0x000000000000721c                _bt_gatt_service_static_list_end = .

log_const_sections
                0x000000000000721c        0x0
                0x000000000000721c                __log_const_start = .
 *(SORT_BY_NAME(SORT_BY_ALIGNMENT(.log_const_*)))
                0x000000000000721c                __log_const_end = .

log_backends_sections
                0x000000000000721c        0x0
                0x000000000000721c                __log_backends_start = .
 *(SORT_BY_ALIGNMENT(._log_backend.*))
                0x000000000000721c                __log_backends_end = .

shell_area      0x000000000000721c        0x0
                0x000000000000721c                _shell_list_start = .
 *(SORT_BY_NAME(SORT_BY_ALIGNMENT(._shell.static.*)))
                0x000000000000721c                _shell_list_end = .

shell_root_cmds_sections
                0x000000000000721c        0x0
                0x000000000000721c                __shell_root_cmds_start = .
 *(SORT_BY_NAME(SORT_BY_ALIGNMENT(.shell_root_cmd_*)))
                0x000000000000721c                __shell_root_cmds_end = .

font_entry_sections
                0x000000000000721c        0x0
                0x000000000000721c                __font_entry_start = .
 *(SORT_BY_NAME(SORT_BY_ALIGNMENT(._cfb_font.*)))
                0x000000000000721c                __font_entry_end = .

tracing_backend_area
                0x000000000000721c        0x0
                0x000000000000721c                _tracing_backend_list_start = .
 *(SORT_BY_NAME(SORT_BY_ALIGNMENT(._tracing_backend.static.*)))
                0x000000000000721c                _tracing_backend_list_end = .

rodata          0x0000000000007220      0x654
 *(SORT_BY_ALIGNMENT(.rodata))
 *(SORT_BY_ALIGNMENT(.rodata.*))
 .rodata.delay_machine_code.9059
                0x0000000000007220        0x6 soc/arm/nordic_nrf/nrf52/libsoc__arm__nordic_nrf__nrf52.a(soc.c.obj)
 *fill*         0x0000000000007226        0x2 
 .rodata.clock_control_api
                0x0000000000007228       0x14 libzephyr.a(nrf_power_clock.c.obj)
 .rodata.config
                0x000000000000723c       0x10 libzephyr.a(nrf_power_clock.c.obj)
 .rodata.transitions.10500
                0x000000000000724c        0xc libzephyr.a(nrf_power_clock.c.obj)
 .rodata.mpu_config
                0x0000000000007258        0x8 soc/arm/common/cortex_m/libsoc__arm__common__cortex_m.a(arm_mpu_regions.c.obj)
                0x0000000000007258                mpu_config
 .rodata.mpu_regions
                0x0000000000007260       0x18 soc/arm/common/cortex_m/libsoc__arm__common__cortex_m.a(arm_mpu_regions.c.obj)
 .rodata.gpio_nrfx_drv_api_funcs
                0x0000000000007278       0x24 drivers/gpio/libdrivers__gpio.a(gpio_nrfx.c.obj)
 .rodata.gpio_nrfx_p0_cfg
                0x000000000000729c        0xc drivers/gpio/libdrivers__gpio.a(gpio_nrfx.c.obj)
 .rodata.uart_nrfx_uart_driver_api
                0x00000000000072a8       0x14 drivers/serial/libdrivers__serial.a(uart_nrfx_uart.c.obj)
 .rodata.levels.9301
                0x00000000000072bc       0x14 kernel/libkernel.a(device.c.obj)
 .rodata._k_neg_eagain
                0x00000000000072d0        0x4 kernel/libkernel.a(errno.c.obj)
                0x00000000000072d0                _k_neg_eagain
 .rodata._k_syscall_table
                0x00000000000072d4      0x430 kernel/libkernel.a(userspace.c.obj)
                0x00000000000072d4                _k_syscall_table
 .rodata.thread_b.str1.1
                0x0000000000007704       0x1b ../app/libapp.a(main.c.obj)
 .rodata.thread_a.str1.1
                0x000000000000771f       0x1e ../app/libapp.a(main.c.obj)
 .rodata.device_get_binding.constprop.0.str1.1
                0x000000000000773d        0x7 ../app/libapp.a(main.c.obj)
 .rodata.print_workqueue.str1.1
                0x0000000000007744       0x23 ../app/libapp.a(main.c.obj)
 .rodata.Thread_receive.str1.1
                0x0000000000007767       0x17 ../app/libapp.a(main.c.obj)
 .rodata.Thread_send.str1.1
                0x000000000000777e        0xf ../app/libapp.a(main.c.obj)
 .rodata.main.str1.1
                0x000000000000778d       0x37 ../app/libapp.a(main.c.obj)
 .rodata.print_digits.str1.1
                0x00000000000077c4       0x11 libzephyr.a(printk.c.obj)
 .rodata.uart_console_init.str1.1
                0x00000000000077d5        0x7 libzephyr.a(uart_console.c.obj)
 .rodata.str1.1
                0x00000000000077dc        0x6 libzephyr.a(nrf_power_clock.c.obj)
 .rodata.str1.1
                0x00000000000077e2        0xa libzephyr.a(sys_clock_init.c.obj)
 .rodata._DoInit.str1.1
                0x00000000000077ec       0x14 libzephyr.a(SEGGER_RTT.c.obj)
 .rodata.str1.1
                0x0000000000007800        0xf soc/arm/common/cortex_m/libsoc__arm__common__cortex_m.a(arm_mpu_regions.c.obj)
 .rodata.str1.1
                0x000000000000780f        0x7 drivers/gpio/libdrivers__gpio.a(gpio_nrfx.c.obj)
 .rodata.str1.1
                0x000000000000780f        0x7 drivers/serial/libdrivers__serial.a(uart_nrfx_uart.c.obj)
 .rodata.CSWTCH.14
                0x000000000000780f        0x4 ../modules/nordic/lib..__modules__hal__nordic.a(system_nrf52.c.obj)
 .rodata.CSWTCH.18
                0x0000000000007813        0x4 ../modules/nordic/lib..__modules__hal__nordic.a(system_nrf52.c.obj)
 .rodata.CSWTCH.4
                0x0000000000007817        0x4 ../modules/nordic/lib..__modules__hal__nordic.a(system_nrf52.c.obj)
 .rodata.bg_thread_main.str1.1
                0x000000000000781b       0x48 kernel/libkernel.a(init.c.obj)
                                         0x49 (size before relaxing)
 .rodata.z_cstart.str1.1
                0x0000000000007863        0x5 kernel/libkernel.a(init.c.obj)
 .rodata.k_work_q_start.str1.1
                0x0000000000007868        0xa kernel/libkernel.a(work_q.c.obj)
 *(SORT_BY_ALIGNMENT(.gnu.linkonce.r.*))
 *(SORT_BY_ALIGNMENT(.kobject_data.rodata*))
                0x0000000000007874                . = ALIGN (0x4)
 *fill*         0x0000000000007872        0x2 
                0x0000000000007874                _image_rodata_end = .
                0x0000000000007880                . = ALIGN (_region_min_align)
                0x0000000000008000                . = ALIGN ((0x1 << LOG2CEIL ((_image_rodata_end - _image_rom_start))))
                0x0000000000008000                _image_rom_end = .
                0x0000000020000000                . = 0x20000000
                0x0000000020000000                . = ALIGN (_region_min_align)
                0x0000000020000000                _image_ram_start = .

.ramfunc        0x0000000020000000        0x0 load address 0x0000000000007874
                0x0000000020000000                . = ALIGN (_region_min_align)
                0x0000000020000000                . = ALIGN ((0x1 << LOG2CEIL (_ramfunc_ram_size)))
                0x0000000020000000                _ramfunc_ram_start = .
 *(SORT_BY_ALIGNMENT(.ramfunc))
 *(SORT_BY_ALIGNMENT(.ramfunc.*))
                0x0000000020000000                . = ALIGN (_region_min_align)
                0x0000000020000000                . = ALIGN ((0x1 << LOG2CEIL (_ramfunc_ram_size)))
                0x0000000020000000                _ramfunc_ram_end = .
                0x0000000000000000                _ramfunc_ram_size = (_ramfunc_ram_end - _ramfunc_ram_start)
                0x0000000000007874                _ramfunc_rom_start = LOADADDR (.ramfunc)

app_smem        0x0000000020000000        0x0 load address 0x0000000000007874
                0x0000000020000000                . = ALIGN (_region_min_align)
                0x0000000020000000                _app_smem_start = .
                0x0000000020000000                . = ALIGN (_region_min_align)
                0x0000000020000000                _app_smem_end = .
                0x0000000000000000                _app_smem_size = (_app_smem_end - _app_smem_start)
                0x0000000000007874                _app_smem_rom_start = LOADADDR (app_smem)

bss             0x0000000020000000     0x13f5
                0x0000000020000000                . = ALIGN (0x4)
                0x0000000020000000                __bss_start = .
                0x0000000020000000                __kernel_ram_start = .
 *(SORT_BY_ALIGNMENT(.bss))
 *(SORT_BY_ALIGNMENT(.bss.*))
 .bss.my_thread_data_a
                0x0000000020000000       0xa0 ../app/libapp.a(main.c.obj)
 .bss.my_thread_data_b
                0x00000000200000a0       0xa0 ../app/libapp.a(main.c.obj)
 .bss.my_thread_data_receive
                0x0000000020000140       0xa0 ../app/libapp.a(main.c.obj)
 .bss.my_thread_data_send
                0x00000000200001e0       0xa0 ../app/libapp.a(main.c.obj)
 .bss.my_timer  0x0000000020000280       0x38 ../app/libapp.a(main.c.obj)
 .bss.my_work_q
                0x00000000200002b8       0xb0 ../app/libapp.a(main.c.obj)
 .bss.z_idle_threads
                0x0000000020000368       0xa0 kernel/libkernel.a(init.c.obj)
                0x0000000020000368                z_idle_threads
 .bss.z_main_thread
                0x0000000020000408       0xa0 kernel/libkernel.a(init.c.obj)
                0x0000000020000408                z_main_thread
 .bss.curr_tick
                0x00000000200004a8        0x8 kernel/libkernel.a(timeout.c.obj)
 .bss.my_msgq   0x00000000200004b0       0x28 ../app/libapp.a(main.c.obj)
 .bss.my_stack  0x00000000200004d8       0x18 ../app/libapp.a(main.c.obj)
 .bss.my_stack_array
                0x00000000200004f0       0x28 ../app/libapp.a(main.c.obj)
                0x00000000200004f0                my_stack_array
 .bss.my_work   0x0000000020000518        0xc ../app/libapp.a(main.c.obj)
 .bss.status_timer
                0x0000000020000524        0x4 ../app/libapp.a(main.c.obj)
                0x0000000020000524                status_timer
 .bss.uart_console_dev
                0x0000000020000528        0x4 libzephyr.a(uart_console.c.obj)
 .bss.cli.10486
                0x000000002000052c       0x10 libzephyr.a(nrf_power_clock.c.obj)
 .bss.data      0x000000002000053c       0x50 libzephyr.a(nrf_power_clock.c.obj)
 .bss.hfclk_users
                0x000000002000058c        0x4 libzephyr.a(nrf_power_clock.c.obj)
 .bss.on.10485  0x0000000020000590        0x4 libzephyr.a(nrf_power_clock.c.obj)
 .bss.last_count
                0x0000000020000594        0x4 libzephyr.a(nrf_rtc_timer.c.obj)
 .bss._SEGGER_RTT
                0x0000000020000598       0xa8 libzephyr.a(SEGGER_RTT.c.obj)
                0x0000000020000598                _SEGGER_RTT
 .bss.gpio_nrfx_p0_data
                0x0000000020000640       0x1c drivers/gpio/libdrivers__gpio.a(gpio_nrfx.c.obj)
 .bss.gpiote_alloc_mask
                0x000000002000065c        0x4 drivers/gpio/libdrivers__gpio.a(gpio_nrfx.c.obj)
 .bss.poll_out_lock.9783
                0x0000000020000660        0x4 drivers/serial/libdrivers__serial.a(uart_nrfx_uart.c.obj)
 .bss._kernel   0x0000000020000664       0x30 kernel/libkernel.a(sched.c.obj)
                0x0000000020000664                _kernel
 .bss.pending_current
                0x0000000020000694        0x4 kernel/libkernel.a(sched.c.obj)
 .bss.slice_max_prio
                0x0000000020000698        0x4 kernel/libkernel.a(sched.c.obj)
 .bss.slice_time
                0x000000002000069c        0x4 kernel/libkernel.a(sched.c.obj)
 .bss.announce_remaining
                0x00000000200006a0        0x4 kernel/libkernel.a(timeout.c.obj)
 .bss.kheap_poolheap__heap_mem_pool
                0x00000000200006a4      0x93c kernel/libkernel.a(mempool.c.obj)
                0x00000000200006a4                kheap_poolheap__heap_mem_pool
 .bss.once.10378
                0x0000000020000fe0        0x1 libzephyr.a(nrf_power_clock.c.obj)
 .bss._acDownBuffer
                0x0000000020000fe1       0x10 libzephyr.a(SEGGER_RTT.c.obj)
 .bss._acUpBuffer
                0x0000000020000ff1      0x400 libzephyr.a(SEGGER_RTT.c.obj)
 .bss.static_regions_num
                0x00000000200013f1        0x1 arch/arch/arm/core/aarch32/cortex_m/mpu/libarch__arm__core__aarch32__cortex_m__mpu.a(arm_mpu.c.obj)
 .bss.gpio_initialized.9787
                0x00000000200013f2        0x1 drivers/gpio/libdrivers__gpio.a(gpio_nrfx.c.obj)
 .bss.z_sys_post_kernel
                0x00000000200013f3        0x1 kernel/libkernel.a(init.c.obj)
                0x00000000200013f3                z_sys_post_kernel
 .bss.lock      0x00000000200013f4        0x0 kernel/libkernel.a(mutex.c.obj)
 .bss.sched_spinlock
                0x00000000200013f4        0x0 kernel/libkernel.a(sched.c.obj)
 .bss.lock      0x00000000200013f4        0x0 kernel/libkernel.a(sem.c.obj)
 .bss.lock      0x00000000200013f4        0x0 kernel/libkernel.a(timer.c.obj)
 .bss.max_partitions
                0x00000000200013f4        0x1 kernel/libkernel.a(mem_domain.c.obj)
 *(SORT_BY_ALIGNMENT(COMMON))
 *(SORT_BY_ALIGNMENT(.kernel_bss.*))
                0x00000000200013f8                __bss_end = ALIGN (0x4)

noinit          0x0000000020001400     0x1a00
 *(SORT_BY_ALIGNMENT(.noinit))
 *(SORT_BY_ALIGNMENT(.noinit.*))
 .noinit."WEST_TOPDIR/zephyr/kernel/init.c".2
                0x0000000020001400      0x140 kernel/libkernel.a(init.c.obj)
 .noinit."WEST_TOPDIR/zephyr/kernel/init.c".3
                0x0000000020001540      0x800 kernel/libkernel.a(init.c.obj)
                0x0000000020001540                z_interrupt_stacks
                0x0000000020001d40                z_user_stacks_start = .
 *(SORT_BY_ALIGNMENT(.user_stacks))
 *fill*         0x0000000020001d40      0x2c0 
 .user_stacks   0x0000000020002000      0x400 kernel/libkernel.a(init.c.obj)
                0x0000000020002000                z_main_stack
 .user_stacks   0x0000000020002400      0xa00 ../app/libapp.a(main.c.obj)
                0x0000000020002400                my_stack_area_a
                0x0000000020002600                my_stack_area_b
                0x0000000020002800                my_stack_area_send
                0x0000000020002a00                my_stack_area_receive
                0x0000000020002c00                my_stack_workqueue
                0x0000000020002e00                z_user_stacks_end = .

datas           0x0000000020002e00       0x20 load address 0x0000000000007874
                0x0000000020002e00                __data_ram_start = .
 *(SORT_BY_ALIGNMENT(.data))
 *(SORT_BY_ALIGNMENT(.data.*))
 .data._char_out
                0x0000000020002e00        0x4 libzephyr.a(printk.c.obj)
                0x0000000020002e00                _char_out
 .data._stdout_hook
                0x0000000020002e04        0x4 lib/libc/minimal/liblib__libc__minimal.a(stdout_console.c.obj)
 .data.uart_nrfx_uart0_data
                0x0000000020002e08        0x8 drivers/serial/libdrivers__serial.a(uart_nrfx_uart.c.obj)
 .data.SystemCoreClock
                0x0000000020002e10        0x4 ../modules/nordic/lib..__modules__hal__nordic.a(system_nrf52.c.obj)
                0x0000000020002e10                SystemCoreClock
 .data.timeout_list
                0x0000000020002e14        0x8 kernel/libkernel.a(timeout.c.obj)
 .data._heap_mem_pool
                0x0000000020002e1c        0x4 kernel/libkernel.a(mempool.c.obj)
                0x0000000020002e1c                _heap_mem_pool
 *(SORT_BY_ALIGNMENT(.kernel.*))
                0x0000000000007874                __data_rom_start = LOADADDR (datas)

devices         0x0000000020002e20       0x40 load address 0x0000000000007894
                0x0000000020002e20                __device_start = .
                0x0000000020002e20                __device_PRE_KERNEL_1_start = .
 *(SORT_BY_NAME(SORT_BY_ALIGNMENT(.device_PRE_KERNEL_1[0-9])))
 *(SORT_BY_NAME(SORT_BY_ALIGNMENT(.device_PRE_KERNEL_1[1-9][0-9])))
 .device_PRE_KERNEL_150
                0x0000000020002e20       0x10 libzephyr.a(nrf_power_clock.c.obj)
 .device_PRE_KERNEL_150
                0x0000000020002e30       0x10 drivers/serial/libdrivers__serial.a(uart_nrfx_uart.c.obj)
                0x0000000020002e40                __device_PRE_KERNEL_2_start = .
 *(SORT_BY_NAME(SORT_BY_ALIGNMENT(.device_PRE_KERNEL_2[0-9])))
 .device_PRE_KERNEL_20
                0x0000000020002e40       0x10 libzephyr.a(sys_clock_init.c.obj)
 *(SORT_BY_NAME(SORT_BY_ALIGNMENT(.device_PRE_KERNEL_2[1-9][0-9])))
                0x0000000020002e50                __device_POST_KERNEL_start = .
 *(SORT_BY_NAME(SORT_BY_ALIGNMENT(.device_POST_KERNEL[0-9])))
 *(SORT_BY_NAME(SORT_BY_ALIGNMENT(.device_POST_KERNEL[1-9][0-9])))
 .device_POST_KERNEL40
                0x0000000020002e50       0x10 drivers/gpio/libdrivers__gpio.a(gpio_nrfx.c.obj)
                0x0000000020002e60                __device_APPLICATION_start = .
 *(SORT_BY_NAME(SORT_BY_ALIGNMENT(.device_APPLICATION[0-9])))
 *(SORT_BY_NAME(SORT_BY_ALIGNMENT(.device_APPLICATION[1-9][0-9])))
                0x0000000020002e60                __device_SMP_start = .
 *(SORT_BY_NAME(SORT_BY_ALIGNMENT(.device_SMP[0-9])))
 *(SORT_BY_NAME(SORT_BY_ALIGNMENT(.device_SMP[1-9][0-9])))
                0x0000000020002e60                __device_end = .

initshell       0x0000000020002e60        0x0 load address 0x00000000000078d4
                0x0000000020002e60                __shell_module_start = .
 *(SORT_BY_ALIGNMENT(.shell_module_*))
                0x0000000020002e60                __shell_module_end = .
                0x0000000020002e60                __shell_cmd_start = .
 *(SORT_BY_ALIGNMENT(.shell_cmd_*))
                0x0000000020002e60                __shell_cmd_end = .

log_dynamic_sections
                0x0000000020002e60        0x0 load address 0x00000000000078d4
                0x0000000020002e60                __log_dynamic_start = .
 *(SORT_BY_NAME(SORT_BY_ALIGNMENT(.log_dynamic_*)))
                0x0000000020002e60                __log_dynamic_end = .

_static_thread_data_area
                0x0000000020002e60        0x0 load address 0x00000000000078d4
                0x0000000020002e60                __static_thread_data_list_start = .
 *(SORT_BY_NAME(SORT_BY_ALIGNMENT(.__static_thread_data.static.*)))
                0x0000000020002e60                __static_thread_data_list_end = .
                0x0000000020002e60                _static_kernel_objects_begin = .

k_timer_area    0x0000000020002e60        0x0 load address 0x00000000000078d4
                0x0000000020002e60                _k_timer_list_start = .
 *(SORT_BY_NAME(SORT_BY_ALIGNMENT(._k_timer.static.*)))
                0x0000000020002e60                _k_timer_list_end = .

k_mem_slab_area
                0x0000000020002e60        0x0 load address 0x00000000000078d4
                0x0000000020002e60                _k_mem_slab_list_start = .
 *(SORT_BY_NAME(SORT_BY_ALIGNMENT(._k_mem_slab.static.*)))
                0x0000000020002e60                _k_mem_slab_list_end = .

k_mem_pool_area
                0x0000000020002e60        0x0 load address 0x00000000000078d4
                0x0000000020002e60                _k_mem_pool_list_start = .
 *(SORT_BY_NAME(SORT_BY_ALIGNMENT(._k_mem_pool.static.*)))
                0x0000000020002e60                _k_mem_pool_list_end = .

k_heap_area     0x0000000020002e60       0x14 load address 0x00000000000078d4
                0x0000000020002e60                _k_heap_list_start = .
 *(SORT_BY_NAME(SORT_BY_ALIGNMENT(._k_heap.static.*)))
 ._k_heap.static.poolheap__heap_mem_pool
                0x0000000020002e60       0x14 kernel/libkernel.a(mempool.c.obj)
                0x0000000020002e60                poolheap__heap_mem_pool
                0x0000000020002e74                _k_heap_list_end = .

k_mutex_area    0x0000000020002e74       0x28 load address 0x00000000000078e8
                0x0000000020002e74                _k_mutex_list_start = .
 *(SORT_BY_NAME(SORT_BY_ALIGNMENT(._k_mutex.static.*)))
 ._k_mutex.static.fdtable_lock
                0x0000000020002e74       0x14 libzephyr.a(fdtable.c.obj)
 ._k_mutex.static.rtt_term_mutex
                0x0000000020002e88       0x14 libzephyr.a(SEGGER_RTT_zephyr.c.obj)
                0x0000000020002e88                rtt_term_mutex
                0x0000000020002e9c                _k_mutex_list_end = .

k_stack_area    0x0000000020002e9c        0x0 load address 0x0000000000007910
                0x0000000020002e9c                _k_stack_list_start = .
 *(SORT_BY_NAME(SORT_BY_ALIGNMENT(._k_stack.static.*)))
                0x0000000020002e9c                _k_stack_list_end = .

k_msgq_area     0x0000000020002e9c        0x0 load address 0x0000000000007910
                0x0000000020002e9c                _k_msgq_list_start = .
 *(SORT_BY_NAME(SORT_BY_ALIGNMENT(._k_msgq.static.*)))
                0x0000000020002e9c                _k_msgq_list_end = .

k_mbox_area     0x0000000020002e9c        0x0 load address 0x0000000000007910
                0x0000000020002e9c                _k_mbox_list_start = .
 *(SORT_BY_NAME(SORT_BY_ALIGNMENT(._k_mbox.static.*)))
                0x0000000020002e9c                _k_mbox_list_end = .

k_pipe_area     0x0000000020002e9c        0x0 load address 0x0000000000007910
                0x0000000020002e9c                _k_pipe_list_start = .
 *(SORT_BY_NAME(SORT_BY_ALIGNMENT(._k_pipe.static.*)))
                0x0000000020002e9c                _k_pipe_list_end = .

k_sem_area      0x0000000020002e9c        0x0 load address 0x0000000000007910
                0x0000000020002e9c                _k_sem_list_start = .
 *(SORT_BY_NAME(SORT_BY_ALIGNMENT(._k_sem.static.*)))
                0x0000000020002e9c                _k_sem_list_end = .

k_queue_area    0x0000000020002e9c        0x0 load address 0x0000000000007910
                0x0000000020002e9c                _k_queue_list_start = .
 *(SORT_BY_NAME(SORT_BY_ALIGNMENT(._k_queue.static.*)))
                0x0000000020002e9c                _k_queue_list_end = .

_net_buf_pool_area
                0x0000000020002e9c        0x0 load address 0x0000000000007910
                0x0000000020002e9c                _net_buf_pool_list = .
 *(SORT_BY_NAME(SORT_BY_ALIGNMENT(._net_buf_pool.static.*)))
                0x0000000020002e9c                _static_kernel_objects_end = .

kobject_data
 *(SORT_BY_ALIGNMENT(.kobject_data.data*))

priv_stacks_noinit
                0x0000000020002e9c        0x0 load address 0x0000000000007910
                0x0000000020002e9c                z_priv_stacks_ram_start = .
 *(SORT_BY_ALIGNMENT(.priv_stacks.noinit))
                0x0000000020002e9c                z_priv_stacks_ram_end = .
                0x0000000020002e9c                __data_ram_end = .
                0x0000000020002e9c                _image_ram_end = .
                0x0000000020002e9c                _end = .
                0x0000000020010000                __kernel_ram_end = 0x20010000
                0x0000000000010000                __kernel_ram_size = (__kernel_ram_end - __kernel_ram_start)

.intList        0x0000000020010000       0x38
 *(SORT_BY_ALIGNMENT(.irq_info))
 .irq_info      0x0000000020010000        0x8 arch/common/libarch__common.a(isr_tables.c.obj)
                0x0000000020010000                _iheader
 *(SORT_BY_ALIGNMENT(.intList))
 .intList       0x0000000020010008       0x10 libzephyr.a(nrf_power_clock.c.obj)
 .intList       0x0000000020010018       0x10 libzephyr.a(nrf_rtc_timer.c.obj)
 .intList       0x0000000020010028       0x10 drivers/gpio/libdrivers__gpio.a(gpio_nrfx.c.obj)

.stab
 *(SORT_BY_ALIGNMENT(.stab))

.stabstr
 *(SORT_BY_ALIGNMENT(.stabstr))

.stab.excl
 *(SORT_BY_ALIGNMENT(.stab.excl))

.stab.exclstr
 *(SORT_BY_ALIGNMENT(.stab.exclstr))

.stab.index
 *(SORT_BY_ALIGNMENT(.stab.index))

.stab.indexstr
 *(SORT_BY_ALIGNMENT(.stab.indexstr))

.gnu.build.attributes
 *(SORT_BY_ALIGNMENT(.gnu.build.attributes) SORT_BY_ALIGNMENT(.gnu.build.attributes.*))

.comment        0x0000000000000000       0x32
 *(SORT_BY_ALIGNMENT(.comment))
 .comment       0x0000000000000000       0x32 ../app/libapp.a(main.c.obj)
                                         0x33 (size before relaxing)
 .comment       0x0000000000000032       0x33 libzephyr.a(fdtable.c.obj)
 .comment       0x0000000000000032       0x33 libzephyr.a(notify.c.obj)
 .comment       0x0000000000000032       0x33 libzephyr.a(printk.c.obj)
 .comment       0x0000000000000032       0x33 libzephyr.a(onoff.c.obj)
 .comment       0x0000000000000032       0x33 libzephyr.a(thread_entry.c.obj)
 .comment       0x0000000000000032       0x33 libzephyr.a(work_q.c.obj)
 .comment       0x0000000000000032       0x33 libzephyr.a(heap.c.obj)
 .comment       0x0000000000000032       0x33 libzephyr.a(mutex.c.obj)
 .comment       0x0000000000000032       0x33 libzephyr.a(configs.c.obj)
 .comment       0x0000000000000032       0x33 libzephyr.a(uart_console.c.obj)
 .comment       0x0000000000000032       0x33 libzephyr.a(nrf_power_clock.c.obj)
 .comment       0x0000000000000032       0x33 libzephyr.a(sys_clock_init.c.obj)
 .comment       0x0000000000000032       0x33 libzephyr.a(nrf_rtc_timer.c.obj)
 .comment       0x0000000000000032       0x33 libzephyr.a(SEGGER_RTT.c.obj)
 .comment       0x0000000000000032       0x33 libzephyr.a(SEGGER_RTT_zephyr.c.obj)
 .comment       0x0000000000000032       0x33 arch/common/libarch__common.a(isr_tables.c.obj)
 .comment       0x0000000000000032       0x33 arch/arch/arm/core/aarch32/libarch__arm__core__aarch32.a(swap.c.obj)
 .comment       0x0000000000000032       0x33 arch/arch/arm/core/aarch32/libarch__arm__core__aarch32.a(irq_manage.c.obj)
 .comment       0x0000000000000032       0x33 arch/arch/arm/core/aarch32/libarch__arm__core__aarch32.a(thread.c.obj)
 .comment       0x0000000000000032       0x33 arch/arch/arm/core/aarch32/libarch__arm__core__aarch32.a(fatal.c.obj)
 .comment       0x0000000000000032       0x33 arch/arch/arm/core/aarch32/libarch__arm__core__aarch32.a(nmi.c.obj)
 .comment       0x0000000000000032       0x33 arch/arch/arm/core/aarch32/libarch__arm__core__aarch32.a(prep_c.c.obj)
 .comment       0x0000000000000032       0x33 arch/arch/arm/core/aarch32/cortex_m/libarch__arm__core__aarch32__cortex_m.a(fault.c.obj)
 .comment       0x0000000000000032       0x33 arch/arch/arm/core/aarch32/cortex_m/libarch__arm__core__aarch32__cortex_m.a(irq_init.c.obj)
 .comment       0x0000000000000032       0x33 arch/arch/arm/core/aarch32/cortex_m/libarch__arm__core__aarch32__cortex_m.a(thread_abort.c.obj)
 .comment       0x0000000000000032       0x33 arch/arch/arm/core/aarch32/cortex_m/mpu/libarch__arm__core__aarch32__cortex_m__mpu.a(arm_core_mpu.c.obj)
 .comment       0x0000000000000032       0x33 arch/arch/arm/core/aarch32/cortex_m/mpu/libarch__arm__core__aarch32__cortex_m__mpu.a(arm_mpu.c.obj)
 .comment       0x0000000000000032       0x33 lib/libc/minimal/liblib__libc__minimal.a(string.c.obj)
 .comment       0x0000000000000032       0x33 lib/libc/minimal/liblib__libc__minimal.a(stdout_console.c.obj)
 .comment       0x0000000000000032       0x33 soc/arm/common/cortex_m/libsoc__arm__common__cortex_m.a(arm_mpu_regions.c.obj)
 .comment       0x0000000000000032       0x33 soc/arm/nordic_nrf/nrf52/libsoc__arm__nordic_nrf__nrf52.a(soc.c.obj)
 .comment       0x0000000000000032       0x33 drivers/gpio/libdrivers__gpio.a(gpio_nrfx.c.obj)
 .comment       0x0000000000000032       0x33 drivers/gpio/libdrivers__gpio.a(gpio_handlers.c.obj)
 .comment       0x0000000000000032       0x33 drivers/serial/libdrivers__serial.a(uart_nrfx_uart.c.obj)
 .comment       0x0000000000000032       0x33 drivers/serial/libdrivers__serial.a(uart_handlers.c.obj)
 .comment       0x0000000000000032       0x33 ../modules/nordic/lib..__modules__hal__nordic.a(system_nrf52.c.obj)
 .comment       0x0000000000000032       0x33 ../modules/nordic/lib..__modules__hal__nordic.a(nrfx_glue.c.obj)
 .comment       0x0000000000000032       0x33 kernel/libkernel.a(device.c.obj)
 .comment       0x0000000000000032       0x33 kernel/libkernel.a(errno.c.obj)
 .comment       0x0000000000000032       0x33 kernel/libkernel.a(fatal.c.obj)
 .comment       0x0000000000000032       0x33 kernel/libkernel.a(idle.c.obj)
 .comment       0x0000000000000032       0x33 kernel/libkernel.a(init.c.obj)
 .comment       0x0000000000000032       0x33 kernel/libkernel.a(msg_q.c.obj)
 .comment       0x0000000000000032       0x33 kernel/libkernel.a(mutex.c.obj)
 .comment       0x0000000000000032       0x33 kernel/libkernel.a(queue.c.obj)
 .comment       0x0000000000000032       0x33 kernel/libkernel.a(sched.c.obj)
 .comment       0x0000000000000032       0x33 kernel/libkernel.a(sem.c.obj)
 .comment       0x0000000000000032       0x33 kernel/libkernel.a(stack.c.obj)
 .comment       0x0000000000000032       0x33 kernel/libkernel.a(thread.c.obj)
 .comment       0x0000000000000032       0x33 kernel/libkernel.a(work_q.c.obj)
 .comment       0x0000000000000032       0x33 kernel/libkernel.a(timeout.c.obj)
 .comment       0x0000000000000032       0x33 kernel/libkernel.a(timer.c.obj)
 .comment       0x0000000000000032       0x33 kernel/libkernel.a(futex.c.obj)
 .comment       0x0000000000000032       0x33 kernel/libkernel.a(mem_domain.c.obj)
 .comment       0x0000000000000032       0x33 kernel/libkernel.a(userspace.c.obj)
 .comment       0x0000000000000032       0x33 kernel/libkernel.a(mempool.c.obj)
 .comment       0x0000000000000032       0x33 kernel/libkernel.a(userspace_handler.c.obj)
 .comment       0x0000000000000032       0x33 kernel/libkernel.a(kheap.c.obj)
 .comment       0x0000000000000032       0x33 CMakeFiles/offsets.dir/arch/arm/core/offsets/offsets.c.obj

.debug
 *(SORT_BY_ALIGNMENT(.debug))

.line
 *(SORT_BY_ALIGNMENT(.line))

.debug_srcinfo
 *(SORT_BY_ALIGNMENT(.debug_srcinfo))

.debug_sfnames
 *(SORT_BY_ALIGNMENT(.debug_sfnames))

.debug_aranges  0x0000000000000000     0x17e8
 *(SORT_BY_ALIGNMENT(.debug_aranges))
 .debug_aranges
                0x0000000000000000       0x28 arch/arch/arm/core/aarch32/libarch__arm__core__aarch32.a(swap_helper.S.obj)
 .debug_aranges
                0x0000000000000028       0x30 arch/arch/arm/core/aarch32/libarch__arm__core__aarch32.a(cpu_idle.S.obj)
 .debug_aranges
                0x0000000000000058       0x20 arch/arch/arm/core/aarch32/libarch__arm__core__aarch32.a(nmi_on_reset.S.obj)
 .debug_aranges
                0x0000000000000078       0x20 arch/arch/arm/core/aarch32/libarch__arm__core__aarch32.a(isr_wrapper.S.obj)
 .debug_aranges
                0x0000000000000098       0x30 arch/arch/arm/core/aarch32/libarch__arm__core__aarch32.a(userspace.S.obj)
 .debug_aranges
                0x00000000000000c8       0x20 arch/arch/arm/core/aarch32/cortex_m/libarch__arm__core__aarch32__cortex_m.a(reset.S.obj)
 .debug_aranges
                0x00000000000000e8       0x20 arch/arch/arm/core/aarch32/cortex_m/libarch__arm__core__aarch32__cortex_m.a(fault_s.S.obj)
 .debug_aranges
                0x0000000000000108       0x20 arch/arch/arm/core/aarch32/cortex_m/libarch__arm__core__aarch32__cortex_m.a(exc_exit.S.obj)
 .debug_aranges
                0x0000000000000128       0xb0 ../app/libapp.a(main.c.obj)
 .debug_aranges
                0x00000000000001d8       0x60 libzephyr.a(fdtable.c.obj)
 .debug_aranges
                0x0000000000000238       0x28 libzephyr.a(notify.c.obj)
 .debug_aranges
                0x0000000000000260       0x98 libzephyr.a(printk.c.obj)
 .debug_aranges
                0x00000000000002f8       0x70 libzephyr.a(onoff.c.obj)
 .debug_aranges
                0x0000000000000368       0x20 libzephyr.a(thread_entry.c.obj)
 .debug_aranges
                0x0000000000000388       0x30 libzephyr.a(work_q.c.obj)
 .debug_aranges
                0x00000000000003b8       0x98 libzephyr.a(heap.c.obj)
 .debug_aranges
                0x0000000000000450       0x40 libzephyr.a(mutex.c.obj)
 .debug_aranges
                0x0000000000000490       0x20 libzephyr.a(configs.c.obj)
 .debug_aranges
                0x00000000000004b0       0x30 libzephyr.a(uart_console.c.obj)
 .debug_aranges
                0x00000000000004e0       0xd8 libzephyr.a(nrf_power_clock.c.obj)
 .debug_aranges
                0x00000000000005b8       0x40 libzephyr.a(sys_clock_init.c.obj)
 .debug_aranges
                0x00000000000005f8       0x50 libzephyr.a(nrf_rtc_timer.c.obj)
 .debug_aranges
                0x0000000000000648      0x120 libzephyr.a(SEGGER_RTT.c.obj)
 .debug_aranges
                0x0000000000000768       0x20 libzephyr.a(SEGGER_RTT_zephyr.c.obj)
 .debug_aranges
                0x0000000000000788       0x18 arch/common/libarch__common.a(isr_tables.c.obj)
 .debug_aranges
                0x00000000000007a0       0x20 arch/arch/arm/core/aarch32/libarch__arm__core__aarch32.a(swap.c.obj)
 .debug_aranges
                0x00000000000007c0       0x48 arch/arch/arm/core/aarch32/libarch__arm__core__aarch32.a(irq_manage.c.obj)
 .debug_aranges
                0x0000000000000808       0x38 arch/arch/arm/core/aarch32/libarch__arm__core__aarch32.a(thread.c.obj)
 .debug_aranges
                0x0000000000000840       0x38 arch/arch/arm/core/aarch32/libarch__arm__core__aarch32.a(fatal.c.obj)
 .debug_aranges
                0x0000000000000878       0x20 arch/arch/arm/core/aarch32/libarch__arm__core__aarch32.a(nmi.c.obj)
 .debug_aranges
                0x0000000000000898       0x20 arch/arch/arm/core/aarch32/libarch__arm__core__aarch32.a(prep_c.c.obj)
 .debug_aranges
                0x00000000000008b8       0x48 arch/arch/arm/core/aarch32/cortex_m/libarch__arm__core__aarch32__cortex_m.a(fault.c.obj)
 .debug_aranges
                0x0000000000000900       0x20 arch/arch/arm/core/aarch32/cortex_m/libarch__arm__core__aarch32__cortex_m.a(irq_init.c.obj)
 .debug_aranges
                0x0000000000000920       0x20 arch/arch/arm/core/aarch32/cortex_m/libarch__arm__core__aarch32__cortex_m.a(thread_abort.c.obj)
 .debug_aranges
                0x0000000000000940       0x68 arch/arch/arm/core/aarch32/cortex_m/mpu/libarch__arm__core__aarch32__cortex_m__mpu.a(arm_core_mpu.c.obj)
 .debug_aranges
                0x00000000000009a8       0x70 arch/arch/arm/core/aarch32/cortex_m/mpu/libarch__arm__core__aarch32__cortex_m__mpu.a(arm_mpu.c.obj)
 .debug_aranges
                0x0000000000000a18       0x90 lib/libc/minimal/liblib__libc__minimal.a(string.c.obj)
 .debug_aranges
                0x0000000000000aa8       0x80 lib/libc/minimal/liblib__libc__minimal.a(stdout_console.c.obj)
 .debug_aranges
                0x0000000000000b28       0x18 soc/arm/common/cortex_m/libsoc__arm__common__cortex_m.a(arm_mpu_regions.c.obj)
 .debug_aranges
                0x0000000000000b40       0x38 soc/arm/nordic_nrf/nrf52/libsoc__arm__nordic_nrf__nrf52.a(soc.c.obj)
 .debug_aranges
                0x0000000000000b78       0x68 drivers/gpio/libdrivers__gpio.a(gpio_nrfx.c.obj)
 .debug_aranges
                0x0000000000000be0       0x60 drivers/gpio/libdrivers__gpio.a(gpio_handlers.c.obj)
 .debug_aranges
                0x0000000000000c40       0x48 drivers/serial/libdrivers__serial.a(uart_nrfx_uart.c.obj)
 .debug_aranges
                0x0000000000000c88       0x48 drivers/serial/libdrivers__serial.a(uart_handlers.c.obj)
 .debug_aranges
                0x0000000000000cd0       0x38 ../modules/nordic/lib..__modules__hal__nordic.a(system_nrf52.c.obj)
 .debug_aranges
                0x0000000000000d08       0x30 ../modules/nordic/lib..__modules__hal__nordic.a(nrfx_glue.c.obj)
 .debug_aranges
                0x0000000000000d38       0x40 kernel/libkernel.a(device.c.obj)
 .debug_aranges
                0x0000000000000d78       0x28 kernel/libkernel.a(errno.c.obj)
 .debug_aranges
                0x0000000000000da0       0x40 kernel/libkernel.a(fatal.c.obj)
 .debug_aranges
                0x0000000000000de0       0x28 kernel/libkernel.a(idle.c.obj)
 .debug_aranges
                0x0000000000000e08       0x40 kernel/libkernel.a(init.c.obj)
 .debug_aranges
                0x0000000000000e48       0xa8 kernel/libkernel.a(msg_q.c.obj)
 .debug_aranges
                0x0000000000000ef0       0x58 kernel/libkernel.a(mutex.c.obj)
 .debug_aranges
                0x0000000000000f48       0xc0 kernel/libkernel.a(queue.c.obj)
 .debug_aranges
                0x0000000000001008      0x230 kernel/libkernel.a(sched.c.obj)
 .debug_aranges
                0x0000000000001238       0x68 kernel/libkernel.a(sem.c.obj)
 .debug_aranges
                0x00000000000012a0       0x60 kernel/libkernel.a(stack.c.obj)
 .debug_aranges
                0x0000000000001300       0xf8 kernel/libkernel.a(thread.c.obj)
 .debug_aranges
                0x00000000000013f8       0x50 kernel/libkernel.a(work_q.c.obj)
 .debug_aranges
                0x0000000000001448       0x98 kernel/libkernel.a(timeout.c.obj)
 .debug_aranges
                0x00000000000014e0       0x90 kernel/libkernel.a(timer.c.obj)
 .debug_aranges
                0x0000000000001570       0x40 kernel/libkernel.a(futex.c.obj)
 .debug_aranges
                0x00000000000015b0       0x50 kernel/libkernel.a(mem_domain.c.obj)
 .debug_aranges
                0x0000000000001600       0xf0 kernel/libkernel.a(userspace.c.obj)
 .debug_aranges
                0x00000000000016f0       0x50 kernel/libkernel.a(mempool.c.obj)
 .debug_aranges
                0x0000000000001740       0x40 kernel/libkernel.a(userspace_handler.c.obj)
 .debug_aranges
                0x0000000000001780       0x48 kernel/libkernel.a(kheap.c.obj)
 .debug_aranges
                0x00000000000017c8       0x20 CMakeFiles/offsets.dir/arch/arm/core/offsets/offsets.c.obj

.debug_pubnames
 *(SORT_BY_ALIGNMENT(.debug_pubnames))

.debug_info     0x0000000000000000    0x65081
 *(SORT_BY_ALIGNMENT(.debug_info) SORT_BY_ALIGNMENT(.gnu.linkonce.wi.*))
 .debug_info    0x0000000000000000     0x3edd ../app/libapp.a(main.c.obj)
 .debug_info    0x0000000000003edd     0x1420 libzephyr.a(fdtable.c.obj)
 .debug_info    0x00000000000052fd      0xb68 libzephyr.a(notify.c.obj)
 .debug_info    0x0000000000005e65     0x1a3a libzephyr.a(printk.c.obj)
 .debug_info    0x000000000000789f     0x291b libzephyr.a(onoff.c.obj)
 .debug_info    0x000000000000a1ba      0xc51 libzephyr.a(thread_entry.c.obj)
 .debug_info    0x000000000000ae0b     0x1713 libzephyr.a(work_q.c.obj)
 .debug_info    0x000000000000c51e     0x2820 libzephyr.a(heap.c.obj)
 .debug_info    0x000000000000ed3e     0x16e2 libzephyr.a(mutex.c.obj)
 .debug_info    0x0000000000010420       0x38 libzephyr.a(configs.c.obj)
 .debug_info    0x0000000000010458      0xfa9 libzephyr.a(uart_console.c.obj)
 .debug_info    0x0000000000011401     0x4765 libzephyr.a(nrf_power_clock.c.obj)
 .debug_info    0x0000000000015b66      0xbb4 libzephyr.a(sys_clock_init.c.obj)
 .debug_info    0x000000000001671a     0x2026 libzephyr.a(nrf_rtc_timer.c.obj)
 .debug_info    0x0000000000018740     0x22a7 libzephyr.a(SEGGER_RTT.c.obj)
 .debug_info    0x000000000001a9e7      0xc23 libzephyr.a(SEGGER_RTT_zephyr.c.obj)
 .debug_info    0x000000000001b60a      0x208 arch/common/libarch__common.a(isr_tables.c.obj)
 .debug_info    0x000000000001b812      0xbd9 arch/arch/arm/core/aarch32/libarch__arm__core__aarch32.a(swap.c.obj)
 .debug_info    0x000000000001c3eb       0x22 arch/arch/arm/core/aarch32/libarch__arm__core__aarch32.a(swap_helper.S.obj)
 .debug_info    0x000000000001c40d     0x1027 arch/arch/arm/core/aarch32/libarch__arm__core__aarch32.a(irq_manage.c.obj)
 .debug_info    0x000000000001d434      0xd84 arch/arch/arm/core/aarch32/libarch__arm__core__aarch32.a(thread.c.obj)
 .debug_info    0x000000000001e1b8       0x22 arch/arch/arm/core/aarch32/libarch__arm__core__aarch32.a(cpu_idle.S.obj)
 .debug_info    0x000000000001e1da      0xf9e arch/arch/arm/core/aarch32/libarch__arm__core__aarch32.a(fatal.c.obj)
 .debug_info    0x000000000001f178      0x995 arch/arch/arm/core/aarch32/libarch__arm__core__aarch32.a(nmi.c.obj)
 .debug_info    0x000000000001fb0d       0x26 arch/arch/arm/core/aarch32/libarch__arm__core__aarch32.a(nmi_on_reset.S.obj)
 .debug_info    0x000000000001fb33      0xe84 arch/arch/arm/core/aarch32/libarch__arm__core__aarch32.a(prep_c.c.obj)
 .debug_info    0x00000000000209b7       0x26 arch/arch/arm/core/aarch32/libarch__arm__core__aarch32.a(isr_wrapper.S.obj)
 .debug_info    0x00000000000209dd       0x22 arch/arch/arm/core/aarch32/libarch__arm__core__aarch32.a(userspace.S.obj)
 .debug_info    0x00000000000209ff       0x26 arch/arch/arm/core/aarch32/cortex_m/libarch__arm__core__aarch32__cortex_m.a(reset.S.obj)
 .debug_info    0x0000000000020a25       0x26 arch/arch/arm/core/aarch32/cortex_m/libarch__arm__core__aarch32__cortex_m.a(fault_s.S.obj)
 .debug_info    0x0000000000020a4b     0x1e9e arch/arch/arm/core/aarch32/cortex_m/libarch__arm__core__aarch32__cortex_m.a(fault.c.obj)
 .debug_info    0x00000000000228e9       0x26 arch/arch/arm/core/aarch32/cortex_m/libarch__arm__core__aarch32__cortex_m.a(exc_exit.S.obj)
 .debug_info    0x000000000002290f      0x655 arch/arch/arm/core/aarch32/cortex_m/libarch__arm__core__aarch32__cortex_m.a(irq_init.c.obj)
 .debug_info    0x0000000000022f64      0xcab arch/arch/arm/core/aarch32/cortex_m/libarch__arm__core__aarch32__cortex_m.a(thread_abort.c.obj)
 .debug_info    0x0000000000023c0f     0x123e arch/arch/arm/core/aarch32/cortex_m/mpu/libarch__arm__core__aarch32__cortex_m__mpu.a(arm_core_mpu.c.obj)
 .debug_info    0x0000000000024e4d     0x1e64 arch/arch/arm/core/aarch32/cortex_m/mpu/libarch__arm__core__aarch32__cortex_m__mpu.a(arm_mpu.c.obj)
 .debug_info    0x0000000000026cb1      0x70d lib/libc/minimal/liblib__libc__minimal.a(string.c.obj)
 .debug_info    0x00000000000273be     0x1834 lib/libc/minimal/liblib__libc__minimal.a(stdout_console.c.obj)
 .debug_info    0x0000000000028bf2      0x1df soc/arm/common/cortex_m/libsoc__arm__common__cortex_m.a(arm_mpu_regions.c.obj)
 .debug_info    0x0000000000028dd1     0x1437 soc/arm/nordic_nrf/nrf52/libsoc__arm__nordic_nrf__nrf52.a(soc.c.obj)
 .debug_info    0x000000000002a208     0x3028 drivers/gpio/libdrivers__gpio.a(gpio_nrfx.c.obj)
 .debug_info    0x000000000002d230     0x32b4 drivers/gpio/libdrivers__gpio.a(gpio_handlers.c.obj)
 .debug_info    0x00000000000304e4     0x23fe drivers/serial/libdrivers__serial.a(uart_nrfx_uart.c.obj)
 .debug_info    0x00000000000328e2     0x2623 drivers/serial/libdrivers__serial.a(uart_handlers.c.obj)
 .debug_info    0x0000000000034f05     0x136a ../modules/nordic/lib..__modules__hal__nordic.a(system_nrf52.c.obj)
 .debug_info    0x000000000003626f      0xbf4 ../modules/nordic/lib..__modules__hal__nordic.a(nrfx_glue.c.obj)
 .debug_info    0x0000000000036e63      0xebe kernel/libkernel.a(device.c.obj)
 .debug_info    0x0000000000037d21      0xbc4 kernel/libkernel.a(errno.c.obj)
 .debug_info    0x00000000000388e5     0x1632 kernel/libkernel.a(fatal.c.obj)
 .debug_info    0x0000000000039f17      0xbae kernel/libkernel.a(idle.c.obj)
 .debug_info    0x000000000003aac5     0x1dd0 kernel/libkernel.a(init.c.obj)
 .debug_info    0x000000000003c895     0x33a8 kernel/libkernel.a(msg_q.c.obj)
 .debug_info    0x000000000003fc3d     0x228b kernel/libkernel.a(mutex.c.obj)
 .debug_info    0x0000000000041ec8     0x3a30 kernel/libkernel.a(queue.c.obj)
 .debug_info    0x00000000000458f8     0x77fe kernel/libkernel.a(sched.c.obj)
 .debug_info    0x000000000004d0f6     0x2154 kernel/libkernel.a(sem.c.obj)
 .debug_info    0x000000000004f24a     0x1fea kernel/libkernel.a(stack.c.obj)
 .debug_info    0x0000000000051234     0x3934 kernel/libkernel.a(thread.c.obj)
 .debug_info    0x0000000000054b68     0x1c80 kernel/libkernel.a(work_q.c.obj)
 .debug_info    0x00000000000567e8     0x2128 kernel/libkernel.a(timeout.c.obj)
 .debug_info    0x0000000000058910     0x2e6a kernel/libkernel.a(timer.c.obj)
 .debug_info    0x000000000005b77a     0x17ef kernel/libkernel.a(futex.c.obj)
 .debug_info    0x000000000005cf69     0x15a0 kernel/libkernel.a(mem_domain.c.obj)
 .debug_info    0x000000000005e509     0x2d96 kernel/libkernel.a(userspace.c.obj)
 .debug_info    0x000000000006129f      0xe3c kernel/libkernel.a(mempool.c.obj)
 .debug_info    0x00000000000620db     0x14bc kernel/libkernel.a(userspace_handler.c.obj)
 .debug_info    0x0000000000063597     0x1160 kernel/libkernel.a(kheap.c.obj)
 .debug_info    0x00000000000646f7      0x98a CMakeFiles/offsets.dir/arch/arm/core/offsets/offsets.c.obj

.debug_abbrev   0x0000000000000000     0xf8d2
 *(SORT_BY_ALIGNMENT(.debug_abbrev))
 .debug_abbrev  0x0000000000000000      0x600 ../app/libapp.a(main.c.obj)
 .debug_abbrev  0x0000000000000600      0x4c0 libzephyr.a(fdtable.c.obj)
 .debug_abbrev  0x0000000000000ac0      0x286 libzephyr.a(notify.c.obj)
 .debug_abbrev  0x0000000000000d46      0x65d libzephyr.a(printk.c.obj)
 .debug_abbrev  0x00000000000013a3      0x558 libzephyr.a(onoff.c.obj)
 .debug_abbrev  0x00000000000018fb      0x2db libzephyr.a(thread_entry.c.obj)
 .debug_abbrev  0x0000000000001bd6      0x471 libzephyr.a(work_q.c.obj)
 .debug_abbrev  0x0000000000002047      0x4ac libzephyr.a(heap.c.obj)
 .debug_abbrev  0x00000000000024f3      0x477 libzephyr.a(mutex.c.obj)
 .debug_abbrev  0x000000000000296a       0x2e libzephyr.a(configs.c.obj)
 .debug_abbrev  0x0000000000002998      0x3e9 libzephyr.a(uart_console.c.obj)
 .debug_abbrev  0x0000000000002d81      0x800 libzephyr.a(nrf_power_clock.c.obj)
 .debug_abbrev  0x0000000000003581      0x268 libzephyr.a(sys_clock_init.c.obj)
 .debug_abbrev  0x00000000000037e9      0x55c libzephyr.a(nrf_rtc_timer.c.obj)
 .debug_abbrev  0x0000000000003d45      0x4bd libzephyr.a(SEGGER_RTT.c.obj)
 .debug_abbrev  0x0000000000004202      0x21c libzephyr.a(SEGGER_RTT_zephyr.c.obj)
 .debug_abbrev  0x000000000000441e       0xf5 arch/common/libarch__common.a(isr_tables.c.obj)
 .debug_abbrev  0x0000000000004513      0x235 arch/arch/arm/core/aarch32/libarch__arm__core__aarch32.a(swap.c.obj)
 .debug_abbrev  0x0000000000004748       0x12 arch/arch/arm/core/aarch32/libarch__arm__core__aarch32.a(swap_helper.S.obj)
 .debug_abbrev  0x000000000000475a      0x370 arch/arch/arm/core/aarch32/libarch__arm__core__aarch32.a(irq_manage.c.obj)
 .debug_abbrev  0x0000000000004aca      0x326 arch/arch/arm/core/aarch32/libarch__arm__core__aarch32.a(thread.c.obj)
 .debug_abbrev  0x0000000000004df0       0x12 arch/arch/arm/core/aarch32/libarch__arm__core__aarch32.a(cpu_idle.S.obj)
 .debug_abbrev  0x0000000000004e02      0x3bf arch/arch/arm/core/aarch32/libarch__arm__core__aarch32.a(fatal.c.obj)
 .debug_abbrev  0x00000000000051c1      0x1ca arch/arch/arm/core/aarch32/libarch__arm__core__aarch32.a(nmi.c.obj)
 .debug_abbrev  0x000000000000538b       0x14 arch/arch/arm/core/aarch32/libarch__arm__core__aarch32.a(nmi_on_reset.S.obj)
 .debug_abbrev  0x000000000000539f      0x2d3 arch/arch/arm/core/aarch32/libarch__arm__core__aarch32.a(prep_c.c.obj)
 .debug_abbrev  0x0000000000005672       0x14 arch/arch/arm/core/aarch32/libarch__arm__core__aarch32.a(isr_wrapper.S.obj)
 .debug_abbrev  0x0000000000005686       0x12 arch/arch/arm/core/aarch32/libarch__arm__core__aarch32.a(userspace.S.obj)
 .debug_abbrev  0x0000000000005698       0x14 arch/arch/arm/core/aarch32/cortex_m/libarch__arm__core__aarch32__cortex_m.a(reset.S.obj)
 .debug_abbrev  0x00000000000056ac       0x14 arch/arch/arm/core/aarch32/cortex_m/libarch__arm__core__aarch32__cortex_m.a(fault_s.S.obj)
 .debug_abbrev  0x00000000000056c0      0x577 arch/arch/arm/core/aarch32/cortex_m/libarch__arm__core__aarch32__cortex_m.a(fault.c.obj)
 .debug_abbrev  0x0000000000005c37       0x14 arch/arch/arm/core/aarch32/cortex_m/libarch__arm__core__aarch32__cortex_m.a(exc_exit.S.obj)
 .debug_abbrev  0x0000000000005c4b      0x1e6 arch/arch/arm/core/aarch32/cortex_m/libarch__arm__core__aarch32__cortex_m.a(irq_init.c.obj)
 .debug_abbrev  0x0000000000005e31      0x2d1 arch/arch/arm/core/aarch32/cortex_m/libarch__arm__core__aarch32__cortex_m.a(thread_abort.c.obj)
 .debug_abbrev  0x0000000000006102      0x424 arch/arch/arm/core/aarch32/cortex_m/mpu/libarch__arm__core__aarch32__cortex_m__mpu.a(arm_core_mpu.c.obj)
 .debug_abbrev  0x0000000000006526      0x546 arch/arch/arm/core/aarch32/cortex_m/mpu/libarch__arm__core__aarch32__cortex_m__mpu.a(arm_mpu.c.obj)
 .debug_abbrev  0x0000000000006a6c      0x1a2 lib/libc/minimal/liblib__libc__minimal.a(string.c.obj)
 .debug_abbrev  0x0000000000006c0e      0x49f lib/libc/minimal/liblib__libc__minimal.a(stdout_console.c.obj)
 .debug_abbrev  0x00000000000070ad       0xf3 soc/arm/common/cortex_m/libsoc__arm__common__cortex_m.a(arm_mpu_regions.c.obj)
 .debug_abbrev  0x00000000000071a0      0x3f1 soc/arm/nordic_nrf/nrf52/libsoc__arm__nordic_nrf__nrf52.a(soc.c.obj)
 .debug_abbrev  0x0000000000007591      0x5a3 drivers/gpio/libdrivers__gpio.a(gpio_nrfx.c.obj)
 .debug_abbrev  0x0000000000007b34      0x460 drivers/gpio/libdrivers__gpio.a(gpio_handlers.c.obj)
 .debug_abbrev  0x0000000000007f94      0x554 drivers/serial/libdrivers__serial.a(uart_nrfx_uart.c.obj)
 .debug_abbrev  0x00000000000084e8      0x457 drivers/serial/libdrivers__serial.a(uart_handlers.c.obj)
 .debug_abbrev  0x000000000000893f      0x27d ../modules/nordic/lib..__modules__hal__nordic.a(system_nrf52.c.obj)
 .debug_abbrev  0x0000000000008bbc      0x2ee ../modules/nordic/lib..__modules__hal__nordic.a(nrfx_glue.c.obj)
 .debug_abbrev  0x0000000000008eaa      0x386 kernel/libkernel.a(device.c.obj)
 .debug_abbrev  0x0000000000009230      0x291 kernel/libkernel.a(errno.c.obj)
 .debug_abbrev  0x00000000000094c1      0x477 kernel/libkernel.a(fatal.c.obj)
 .debug_abbrev  0x0000000000009938      0x2f2 kernel/libkernel.a(idle.c.obj)
 .debug_abbrev  0x0000000000009c2a      0x619 kernel/libkernel.a(init.c.obj)
 .debug_abbrev  0x000000000000a243      0x5e4 kernel/libkernel.a(msg_q.c.obj)
 .debug_abbrev  0x000000000000a827      0x569 kernel/libkernel.a(mutex.c.obj)
 .debug_abbrev  0x000000000000ad90      0x5c2 kernel/libkernel.a(queue.c.obj)
 .debug_abbrev  0x000000000000b352      0x807 kernel/libkernel.a(sched.c.obj)
 .debug_abbrev  0x000000000000bb59      0x515 kernel/libkernel.a(sem.c.obj)
 .debug_abbrev  0x000000000000c06e      0x4e5 kernel/libkernel.a(stack.c.obj)
 .debug_abbrev  0x000000000000c553      0x72e kernel/libkernel.a(thread.c.obj)
 .debug_abbrev  0x000000000000cc81      0x502 kernel/libkernel.a(work_q.c.obj)
 .debug_abbrev  0x000000000000d183      0x58e kernel/libkernel.a(timeout.c.obj)
 .debug_abbrev  0x000000000000d711      0x580 kernel/libkernel.a(timer.c.obj)
 .debug_abbrev  0x000000000000dc91      0x437 kernel/libkernel.a(futex.c.obj)
 .debug_abbrev  0x000000000000e0c8      0x42c kernel/libkernel.a(mem_domain.c.obj)
 .debug_abbrev  0x000000000000e4f4      0x695 kernel/libkernel.a(userspace.c.obj)
 .debug_abbrev  0x000000000000eb89      0x36e kernel/libkernel.a(mempool.c.obj)
 .debug_abbrev  0x000000000000eef7      0x469 kernel/libkernel.a(userspace_handler.c.obj)
 .debug_abbrev  0x000000000000f360      0x3b7 kernel/libkernel.a(kheap.c.obj)
 .debug_abbrev  0x000000000000f717      0x1bb CMakeFiles/offsets.dir/arch/arm/core/offsets/offsets.c.obj

.debug_line     0x0000000000000000    0x267c7
 *(SORT_BY_ALIGNMENT(.debug_line) SORT_BY_ALIGNMENT(.debug_line.*) SORT_BY_ALIGNMENT(.debug_line_end))
 .debug_line    0x0000000000000000     0x13e3 ../app/libapp.a(main.c.obj)
 .debug_line    0x00000000000013e3      0x890 libzephyr.a(fdtable.c.obj)
 .debug_line    0x0000000000001c73      0x463 libzephyr.a(notify.c.obj)
 .debug_line    0x00000000000020d6      0xbfd libzephyr.a(printk.c.obj)
 .debug_line    0x0000000000002cd3     0x1278 libzephyr.a(onoff.c.obj)
 .debug_line    0x0000000000003f4b      0x4ed libzephyr.a(thread_entry.c.obj)
 .debug_line    0x0000000000004438      0x7a7 libzephyr.a(work_q.c.obj)
 .debug_line    0x0000000000004bdf      0xead libzephyr.a(heap.c.obj)
 .debug_line    0x0000000000005a8c      0x7f5 libzephyr.a(mutex.c.obj)
 .debug_line    0x0000000000006281      0x17c libzephyr.a(configs.c.obj)
 .debug_line    0x00000000000063fd      0x5fd libzephyr.a(uart_console.c.obj)
 .debug_line    0x00000000000069fa     0x14c3 libzephyr.a(nrf_power_clock.c.obj)
 .debug_line    0x0000000000007ebd      0x412 libzephyr.a(sys_clock_init.c.obj)
 .debug_line    0x00000000000082cf      0xc8f libzephyr.a(nrf_rtc_timer.c.obj)
 .debug_line    0x0000000000008f5e     0x1542 libzephyr.a(SEGGER_RTT.c.obj)
 .debug_line    0x000000000000a4a0      0x3e3 libzephyr.a(SEGGER_RTT_zephyr.c.obj)
 .debug_line    0x000000000000a883      0x1ff arch/common/libarch__common.a(isr_tables.c.obj)
 .debug_line    0x000000000000aa82      0x48b arch/arch/arm/core/aarch32/libarch__arm__core__aarch32.a(swap.c.obj)
 .debug_line    0x000000000000af0d       0xf9 arch/arch/arm/core/aarch32/libarch__arm__core__aarch32.a(swap_helper.S.obj)
 .debug_line    0x000000000000b006      0x53c arch/arch/arm/core/aarch32/libarch__arm__core__aarch32.a(irq_manage.c.obj)
 .debug_line    0x000000000000b542      0x625 arch/arch/arm/core/aarch32/libarch__arm__core__aarch32.a(thread.c.obj)
 .debug_line    0x000000000000bb67       0xae arch/arch/arm/core/aarch32/libarch__arm__core__aarch32.a(cpu_idle.S.obj)
 .debug_line    0x000000000000bc15      0x58d arch/arch/arm/core/aarch32/libarch__arm__core__aarch32.a(fatal.c.obj)
 .debug_line    0x000000000000c1a2      0x3b6 arch/arch/arm/core/aarch32/libarch__arm__core__aarch32.a(nmi.c.obj)
 .debug_line    0x000000000000c558       0x7d arch/arch/arm/core/aarch32/libarch__arm__core__aarch32.a(nmi_on_reset.S.obj)
 .debug_line    0x000000000000c5d5      0x52d arch/arch/arm/core/aarch32/libarch__arm__core__aarch32.a(prep_c.c.obj)
 .debug_line    0x000000000000cb02       0xa5 arch/arch/arm/core/aarch32/libarch__arm__core__aarch32.a(isr_wrapper.S.obj)
 .debug_line    0x000000000000cba7      0x126 arch/arch/arm/core/aarch32/libarch__arm__core__aarch32.a(userspace.S.obj)
 .debug_line    0x000000000000cccd       0x8f arch/arch/arm/core/aarch32/cortex_m/libarch__arm__core__aarch32__cortex_m.a(reset.S.obj)
 .debug_line    0x000000000000cd5c       0x86 arch/arch/arm/core/aarch32/cortex_m/libarch__arm__core__aarch32__cortex_m.a(fault_s.S.obj)
 .debug_line    0x000000000000cde2      0xd66 arch/arch/arm/core/aarch32/cortex_m/libarch__arm__core__aarch32__cortex_m.a(fault.c.obj)
 .debug_line    0x000000000000db48       0x90 arch/arch/arm/core/aarch32/cortex_m/libarch__arm__core__aarch32__cortex_m.a(exc_exit.S.obj)
 .debug_line    0x000000000000dbd8      0x2bf arch/arch/arm/core/aarch32/cortex_m/libarch__arm__core__aarch32__cortex_m.a(irq_init.c.obj)
 .debug_line    0x000000000000de97      0x4fd arch/arch/arm/core/aarch32/cortex_m/libarch__arm__core__aarch32__cortex_m.a(thread_abort.c.obj)
 .debug_line    0x000000000000e394      0x7b0 arch/arch/arm/core/aarch32/cortex_m/mpu/libarch__arm__core__aarch32__cortex_m__mpu.a(arm_core_mpu.c.obj)
 .debug_line    0x000000000000eb44      0xdd9 arch/arch/arm/core/aarch32/cortex_m/mpu/libarch__arm__core__aarch32__cortex_m__mpu.a(arm_mpu.c.obj)
 .debug_line    0x000000000000f91d      0x5cc lib/libc/minimal/liblib__libc__minimal.a(string.c.obj)
 .debug_line    0x000000000000fee9      0x8b2 lib/libc/minimal/liblib__libc__minimal.a(stdout_console.c.obj)
 .debug_line    0x000000000001079b      0x210 soc/arm/common/cortex_m/libsoc__arm__common__cortex_m.a(arm_mpu_regions.c.obj)
 .debug_line    0x00000000000109ab      0x5f2 soc/arm/nordic_nrf/nrf52/libsoc__arm__nordic_nrf__nrf52.a(soc.c.obj)
 .debug_line    0x0000000000010f9d     0x11c5 drivers/gpio/libdrivers__gpio.a(gpio_nrfx.c.obj)
 .debug_line    0x0000000000012162      0xc00 drivers/gpio/libdrivers__gpio.a(gpio_handlers.c.obj)
 .debug_line    0x0000000000012d62      0xb6b drivers/serial/libdrivers__serial.a(uart_nrfx_uart.c.obj)
 .debug_line    0x00000000000138cd      0x9b5 drivers/serial/libdrivers__serial.a(uart_handlers.c.obj)
 .debug_line    0x0000000000014282      0x585 ../modules/nordic/lib..__modules__hal__nordic.a(system_nrf52.c.obj)
 .debug_line    0x0000000000014807      0x579 ../modules/nordic/lib..__modules__hal__nordic.a(nrfx_glue.c.obj)
 .debug_line    0x0000000000014d80      0x668 kernel/libkernel.a(device.c.obj)
 .debug_line    0x00000000000153e8      0x4d8 kernel/libkernel.a(errno.c.obj)
 .debug_line    0x00000000000158c0      0x7da kernel/libkernel.a(fatal.c.obj)
 .debug_line    0x000000000001609a      0x546 kernel/libkernel.a(idle.c.obj)
 .debug_line    0x00000000000165e0      0xa16 kernel/libkernel.a(init.c.obj)
 .debug_line    0x0000000000016ff6     0x11b6 kernel/libkernel.a(msg_q.c.obj)
 .debug_line    0x00000000000181ac      0xd2f kernel/libkernel.a(mutex.c.obj)
 .debug_line    0x0000000000018edb     0x1464 kernel/libkernel.a(queue.c.obj)
 .debug_line    0x000000000001a33f     0x352d kernel/libkernel.a(sched.c.obj)
 .debug_line    0x000000000001d86c      0xb86 kernel/libkernel.a(sem.c.obj)
 .debug_line    0x000000000001e3f2      0xb13 kernel/libkernel.a(stack.c.obj)
 .debug_line    0x000000000001ef05     0x1254 kernel/libkernel.a(thread.c.obj)
 .debug_line    0x0000000000020159      0x95d kernel/libkernel.a(work_q.c.obj)
 .debug_line    0x0000000000020ab6     0x1121 kernel/libkernel.a(timeout.c.obj)
 .debug_line    0x0000000000021bd7      0xffd kernel/libkernel.a(timer.c.obj)
 .debug_line    0x0000000000022bd4      0x8f3 kernel/libkernel.a(futex.c.obj)
 .debug_line    0x00000000000234c7      0xb1a kernel/libkernel.a(mem_domain.c.obj)
 .debug_line    0x0000000000023fe1     0x10cf kernel/libkernel.a(userspace.c.obj)
 .debug_line    0x00000000000250b0      0x510 kernel/libkernel.a(mempool.c.obj)
 .debug_line    0x00000000000255c0      0x69e kernel/libkernel.a(userspace_handler.c.obj)
 .debug_line    0x0000000000025c5e      0x6d9 kernel/libkernel.a(kheap.c.obj)
 .debug_line    0x0000000000026337      0x490 CMakeFiles/offsets.dir/arch/arm/core/offsets/offsets.c.obj

.debug_frame    0x0000000000000000     0x3d60
 *(SORT_BY_ALIGNMENT(.debug_frame))
 .debug_frame   0x0000000000000000      0x290 ../app/libapp.a(main.c.obj)
 .debug_frame   0x0000000000000290       0xf8 libzephyr.a(fdtable.c.obj)
 .debug_frame   0x0000000000000388       0x30 libzephyr.a(notify.c.obj)
 .debug_frame   0x00000000000003b8      0x1e8 libzephyr.a(printk.c.obj)
 .debug_frame   0x00000000000005a0      0x130 libzephyr.a(onoff.c.obj)
 .debug_frame   0x00000000000006d0       0x28 libzephyr.a(thread_entry.c.obj)
 .debug_frame   0x00000000000006f8       0x68 libzephyr.a(work_q.c.obj)
 .debug_frame   0x0000000000000760      0x208 libzephyr.a(heap.c.obj)
 .debug_frame   0x0000000000000968       0xa4 libzephyr.a(mutex.c.obj)
 .debug_frame   0x0000000000000a0c       0x20 libzephyr.a(configs.c.obj)
 .debug_frame   0x0000000000000a2c       0x68 libzephyr.a(uart_console.c.obj)
 .debug_frame   0x0000000000000a94      0x2b0 libzephyr.a(nrf_power_clock.c.obj)
 .debug_frame   0x0000000000000d44       0x70 libzephyr.a(sys_clock_init.c.obj)
 .debug_frame   0x0000000000000db4       0xb0 libzephyr.a(nrf_rtc_timer.c.obj)
 .debug_frame   0x0000000000000e64      0x3fc libzephyr.a(SEGGER_RTT.c.obj)
 .debug_frame   0x0000000000001260       0x28 libzephyr.a(SEGGER_RTT_zephyr.c.obj)
 .debug_frame   0x0000000000001288       0x20 arch/arch/arm/core/aarch32/libarch__arm__core__aarch32.a(swap.c.obj)
 .debug_frame   0x00000000000012a8       0x78 arch/arch/arm/core/aarch32/libarch__arm__core__aarch32.a(irq_manage.c.obj)
 .debug_frame   0x0000000000001320       0x74 arch/arch/arm/core/aarch32/libarch__arm__core__aarch32.a(thread.c.obj)
 .debug_frame   0x0000000000001394       0x64 arch/arch/arm/core/aarch32/libarch__arm__core__aarch32.a(fatal.c.obj)
 .debug_frame   0x00000000000013f8       0x2c arch/arch/arm/core/aarch32/libarch__arm__core__aarch32.a(nmi.c.obj)
 .debug_frame   0x0000000000001424       0x28 arch/arch/arm/core/aarch32/libarch__arm__core__aarch32.a(prep_c.c.obj)
 .debug_frame   0x000000000000144c       0xa8 arch/arch/arm/core/aarch32/cortex_m/libarch__arm__core__aarch32__cortex_m.a(fault.c.obj)
 .debug_frame   0x00000000000014f4       0x20 arch/arch/arm/core/aarch32/cortex_m/libarch__arm__core__aarch32__cortex_m.a(irq_init.c.obj)
 .debug_frame   0x0000000000001514       0x34 arch/arch/arm/core/aarch32/cortex_m/libarch__arm__core__aarch32__cortex_m.a(thread_abort.c.obj)
 .debug_frame   0x0000000000001548       0xf0 arch/arch/arm/core/aarch32/cortex_m/mpu/libarch__arm__core__aarch32__cortex_m__mpu.a(arm_core_mpu.c.obj)
 .debug_frame   0x0000000000001638      0x120 arch/arch/arm/core/aarch32/cortex_m/mpu/libarch__arm__core__aarch32__cortex_m__mpu.a(arm_mpu.c.obj)
 .debug_frame   0x0000000000001758      0x168 lib/libc/minimal/liblib__libc__minimal.a(string.c.obj)
 .debug_frame   0x00000000000018c0      0x150 lib/libc/minimal/liblib__libc__minimal.a(stdout_console.c.obj)
 .debug_frame   0x0000000000001a10       0x50 soc/arm/nordic_nrf/nrf52/libsoc__arm__nordic_nrf__nrf52.a(soc.c.obj)
 .debug_frame   0x0000000000001a60       0xfc drivers/gpio/libdrivers__gpio.a(gpio_nrfx.c.obj)
 .debug_frame   0x0000000000001b5c      0x11c drivers/gpio/libdrivers__gpio.a(gpio_handlers.c.obj)
 .debug_frame   0x0000000000001c78       0xa8 drivers/serial/libdrivers__serial.a(uart_nrfx_uart.c.obj)
 .debug_frame   0x0000000000001d20       0xbc drivers/serial/libdrivers__serial.a(uart_handlers.c.obj)
 .debug_frame   0x0000000000001ddc       0x58 ../modules/nordic/lib..__modules__hal__nordic.a(system_nrf52.c.obj)
 .debug_frame   0x0000000000001e34       0x54 ../modules/nordic/lib..__modules__hal__nordic.a(nrfx_glue.c.obj)
 .debug_frame   0x0000000000001e88       0x9c kernel/libkernel.a(device.c.obj)
 .debug_frame   0x0000000000001f24       0x30 kernel/libkernel.a(errno.c.obj)
 .debug_frame   0x0000000000001f54       0x88 kernel/libkernel.a(fatal.c.obj)
 .debug_frame   0x0000000000001fdc       0x38 kernel/libkernel.a(idle.c.obj)
 .debug_frame   0x0000000000002014       0x84 kernel/libkernel.a(init.c.obj)
 .debug_frame   0x0000000000002098      0x234 kernel/libkernel.a(msg_q.c.obj)
 .debug_frame   0x00000000000022cc       0xf4 kernel/libkernel.a(mutex.c.obj)
 .debug_frame   0x00000000000023c0      0x22c kernel/libkernel.a(queue.c.obj)
 .debug_frame   0x00000000000025ec      0x6f8 kernel/libkernel.a(sched.c.obj)
 .debug_frame   0x0000000000002ce4      0x134 kernel/libkernel.a(sem.c.obj)
 .debug_frame   0x0000000000002e18      0x110 kernel/libkernel.a(stack.c.obj)
 .debug_frame   0x0000000000002f28      0x2dc kernel/libkernel.a(thread.c.obj)
 .debug_frame   0x0000000000003204       0xd4 kernel/libkernel.a(work_q.c.obj)
 .debug_frame   0x00000000000032d8      0x1cc kernel/libkernel.a(timeout.c.obj)
 .debug_frame   0x00000000000034a4      0x1bc kernel/libkernel.a(timer.c.obj)
 .debug_frame   0x0000000000003660       0xac kernel/libkernel.a(futex.c.obj)
 .debug_frame   0x000000000000370c       0xd8 kernel/libkernel.a(mem_domain.c.obj)
 .debug_frame   0x00000000000037e4      0x2fc kernel/libkernel.a(userspace.c.obj)
 .debug_frame   0x0000000000003ae0       0xb0 kernel/libkernel.a(mempool.c.obj)
 .debug_frame   0x0000000000003b90       0x80 kernel/libkernel.a(userspace_handler.c.obj)
 .debug_frame   0x0000000000003c10       0xd0 kernel/libkernel.a(kheap.c.obj)
 .debug_frame   0x0000000000003ce0       0x20 CMakeFiles/offsets.dir/arch/arm/core/offsets/offsets.c.obj
 .debug_frame   0x0000000000003d00       0x2c /home/huynhtai/Downloads/ebook_RTOS/Zephyr_SDK/arm-zephyr-eabi/bin/../lib/gcc/arm-zephyr-eabi/9.2.0/thumb/v7e-m/nofp/libgcc.a(_aeabi_uldivmod.o)
 .debug_frame   0x0000000000003d2c       0x34 /home/huynhtai/Downloads/ebook_RTOS/Zephyr_SDK/arm-zephyr-eabi/bin/../lib/gcc/arm-zephyr-eabi/9.2.0/thumb/v7e-m/nofp/libgcc.a(_udivmoddi4.o)

.debug_str      0x0000000000000000     0xab47
 *(SORT_BY_ALIGNMENT(.debug_str))
 .debug_str     0x0000000000000000     0x10fa ../app/libapp.a(main.c.obj)
                                       0x14f1 (size before relaxing)
 .debug_str     0x00000000000010fa      0x26a libzephyr.a(fdtable.c.obj)
                                        0xb3e (size before relaxing)
 .debug_str     0x0000000000001364       0xbb libzephyr.a(notify.c.obj)
                                        0x7e1 (size before relaxing)
 .debug_str     0x000000000000141f      0x2a8 libzephyr.a(printk.c.obj)
                                        0xc7d (size before relaxing)
 .debug_str     0x00000000000016c7      0x3cc libzephyr.a(onoff.c.obj)
                                        0xbcf (size before relaxing)
 .debug_str     0x0000000000001a93       0x78 libzephyr.a(thread_entry.c.obj)
                                        0x80b (size before relaxing)
 .debug_str     0x0000000000001b0b       0xf3 libzephyr.a(work_q.c.obj)
                                        0xa3c (size before relaxing)
 .debug_str     0x0000000000001bfe      0x307 libzephyr.a(heap.c.obj)
                                        0xa6a (size before relaxing)
 .debug_str     0x0000000000001f05      0x441 libzephyr.a(mutex.c.obj)
                                        0xe17 (size before relaxing)
 .debug_str     0x0000000000002346       0x5d libzephyr.a(configs.c.obj)
                                        0x198 (size before relaxing)
 .debug_str     0x00000000000023a3      0x108 libzephyr.a(uart_console.c.obj)
                                        0xa59 (size before relaxing)
 .debug_str     0x00000000000024ab     0x142b libzephyr.a(nrf_power_clock.c.obj)
                                       0x21f7 (size before relaxing)
 .debug_str     0x00000000000038d6       0xfb libzephyr.a(sys_clock_init.c.obj)
                                        0x971 (size before relaxing)
 .debug_str     0x00000000000039d1      0x732 libzephyr.a(nrf_rtc_timer.c.obj)
                                       0x11f8 (size before relaxing)
 .debug_str     0x0000000000004103      0x481 libzephyr.a(SEGGER_RTT.c.obj)
                                        0xdab (size before relaxing)
 .debug_str     0x0000000000004584       0x71 libzephyr.a(SEGGER_RTT_zephyr.c.obj)
                                        0x97e (size before relaxing)
 .debug_str     0x00000000000045f5       0xb8 arch/common/libarch__common.a(isr_tables.c.obj)
                                        0x31a (size before relaxing)
 .debug_str     0x00000000000046ad      0x131 arch/arch/arm/core/aarch32/libarch__arm__core__aarch32.a(swap.c.obj)
                                        0x80c (size before relaxing)
 .debug_str     0x00000000000047de       0x58 arch/arch/arm/core/aarch32/libarch__arm__core__aarch32.a(swap_helper.S.obj)
                                         0xa8 (size before relaxing)
 .debug_str     0x0000000000004836      0x18a arch/arch/arm/core/aarch32/libarch__arm__core__aarch32.a(irq_manage.c.obj)
                                        0xc25 (size before relaxing)
 .debug_str     0x00000000000049c0      0x155 arch/arch/arm/core/aarch32/libarch__arm__core__aarch32.a(thread.c.obj)
                                        0x8d6 (size before relaxing)
 .debug_str     0x0000000000004b15       0x49 arch/arch/arm/core/aarch32/libarch__arm__core__aarch32.a(cpu_idle.S.obj)
                                         0xa5 (size before relaxing)
 .debug_str     0x0000000000004b5e       0xa5 arch/arch/arm/core/aarch32/libarch__arm__core__aarch32.a(fatal.c.obj)
                                        0x9f2 (size before relaxing)
 .debug_str     0x0000000000004c03       0x6d arch/arch/arm/core/aarch32/libarch__arm__core__aarch32.a(nmi.c.obj)
                                        0x77e (size before relaxing)
 .debug_str     0x0000000000004c70       0x4d arch/arch/arm/core/aarch32/libarch__arm__core__aarch32.a(nmi_on_reset.S.obj)
                                         0xa9 (size before relaxing)
 .debug_str     0x0000000000004cbd      0x318 arch/arch/arm/core/aarch32/libarch__arm__core__aarch32.a(prep_c.c.obj)
                                        0xae5 (size before relaxing)
 .debug_str     0x0000000000004fd5       0x4c arch/arch/arm/core/aarch32/libarch__arm__core__aarch32.a(isr_wrapper.S.obj)
                                         0xa8 (size before relaxing)
 .debug_str     0x0000000000005021       0x4a arch/arch/arm/core/aarch32/libarch__arm__core__aarch32.a(userspace.S.obj)
                                         0xa6 (size before relaxing)
 .debug_str     0x000000000000506b       0xa8 arch/arch/arm/core/aarch32/cortex_m/libarch__arm__core__aarch32__cortex_m.a(reset.S.obj)
                                         0xb4 (size before relaxing)
 .debug_str     0x0000000000005113       0x51 arch/arch/arm/core/aarch32/cortex_m/libarch__arm__core__aarch32__cortex_m.a(fault_s.S.obj)
                                         0xb6 (size before relaxing)
 .debug_str     0x0000000000005164      0x18a arch/arch/arm/core/aarch32/cortex_m/libarch__arm__core__aarch32__cortex_m.a(fault.c.obj)
                                        0xb91 (size before relaxing)
 .debug_str     0x00000000000052ee       0x52 arch/arch/arm/core/aarch32/cortex_m/libarch__arm__core__aarch32__cortex_m.a(exc_exit.S.obj)
                                         0xb7 (size before relaxing)
 .debug_str     0x0000000000005340       0x52 arch/arch/arm/core/aarch32/cortex_m/libarch__arm__core__aarch32__cortex_m.a(irq_init.c.obj)
                                        0x695 (size before relaxing)
 .debug_str     0x0000000000005392       0x90 arch/arch/arm/core/aarch32/cortex_m/libarch__arm__core__aarch32__cortex_m.a(thread_abort.c.obj)
                                        0x86e (size before relaxing)
 .debug_str     0x0000000000005422      0x2b1 arch/arch/arm/core/aarch32/cortex_m/mpu/libarch__arm__core__aarch32__cortex_m__mpu.a(arm_core_mpu.c.obj)
                                        0xd8a (size before relaxing)
 .debug_str     0x00000000000056d3      0x353 arch/arch/arm/core/aarch32/cortex_m/mpu/libarch__arm__core__aarch32__cortex_m__mpu.a(arm_mpu.c.obj)
                                       0x1032 (size before relaxing)
 .debug_str     0x0000000000005a26      0x135 lib/libc/minimal/liblib__libc__minimal.a(string.c.obj)
                                        0x2fb (size before relaxing)
 .debug_str     0x0000000000005b5b      0x12d lib/libc/minimal/liblib__libc__minimal.a(stdout_console.c.obj)
                                        0xbb6 (size before relaxing)
 .debug_str     0x0000000000005c88       0x9f soc/arm/common/cortex_m/libsoc__arm__common__cortex_m.a(arm_mpu_regions.c.obj)
                                        0x302 (size before relaxing)
 .debug_str     0x0000000000005d27      0x30d soc/arm/nordic_nrf/nrf52/libsoc__arm__nordic_nrf__nrf52.a(soc.c.obj)
                                        0xbb2 (size before relaxing)
 .debug_str     0x0000000000006034      0x999 drivers/gpio/libdrivers__gpio.a(gpio_nrfx.c.obj)
                                       0x167e (size before relaxing)
 .debug_str     0x00000000000069cd      0x2fc drivers/gpio/libdrivers__gpio.a(gpio_handlers.c.obj)
                                       0x11f4 (size before relaxing)
 .debug_str     0x0000000000006cc9      0x9c1 drivers/serial/libdrivers__serial.a(uart_nrfx_uart.c.obj)
                                       0x15cc (size before relaxing)
 .debug_str     0x000000000000768a      0x17d drivers/serial/libdrivers__serial.a(uart_handlers.c.obj)
                                        0xeff (size before relaxing)
 .debug_str     0x0000000000007807      0x2bd ../modules/nordic/lib..__modules__hal__nordic.a(system_nrf52.c.obj)
                                        0x7e1 (size before relaxing)
 .debug_str     0x0000000000007ac4      0x1f9 ../modules/nordic/lib..__modules__hal__nordic.a(nrfx_glue.c.obj)
                                        0x983 (size before relaxing)
 .debug_str     0x0000000000007cbd      0x1e0 kernel/libkernel.a(device.c.obj)
                                        0x9d4 (size before relaxing)
 .debug_str     0x0000000000007e9d       0x55 kernel/libkernel.a(errno.c.obj)
                                        0x948 (size before relaxing)
 .debug_str     0x0000000000007ef2       0x8b kernel/libkernel.a(fatal.c.obj)
                                        0xc77 (size before relaxing)
 .debug_str     0x0000000000007f7d       0xe0 kernel/libkernel.a(idle.c.obj)
                                        0x92f (size before relaxing)
 .debug_str     0x000000000000805d      0x1e0 kernel/libkernel.a(init.c.obj)
                                       0x12eb (size before relaxing)
 .debug_str     0x000000000000823d      0x2f4 kernel/libkernel.a(msg_q.c.obj)
                                       0x1149 (size before relaxing)
 .debug_str     0x0000000000008531      0x1cd kernel/libkernel.a(mutex.c.obj)
                                       0x1018 (size before relaxing)
 .debug_str     0x00000000000086fe      0x463 kernel/libkernel.a(queue.c.obj)
                                       0x13a0 (size before relaxing)
 .debug_str     0x0000000000008b61      0xae4 kernel/libkernel.a(sched.c.obj)
                                       0x1b66 (size before relaxing)
 .debug_str     0x0000000000009645      0x13f kernel/libkernel.a(sem.c.obj)
                                       0x106e (size before relaxing)
 .debug_str     0x0000000000009784       0xef kernel/libkernel.a(stack.c.obj)
                                        0xfbf (size before relaxing)
 .debug_str     0x0000000000009873      0x591 kernel/libkernel.a(thread.c.obj)
                                       0x16a4 (size before relaxing)
 .debug_str     0x0000000000009e04      0x147 kernel/libkernel.a(work_q.c.obj)
                                        0xd03 (size before relaxing)
 .debug_str     0x0000000000009f4b      0x126 kernel/libkernel.a(timeout.c.obj)
                                        0xd5d (size before relaxing)
 .debug_str     0x000000000000a071      0x2af kernel/libkernel.a(timer.c.obj)
                                       0x135d (size before relaxing)
 .debug_str     0x000000000000a320       0xe1 kernel/libkernel.a(futex.c.obj)
                                        0xe4c (size before relaxing)
 .debug_str     0x000000000000a401      0x131 kernel/libkernel.a(mem_domain.c.obj)
                                        0xb67 (size before relaxing)
 .debug_str     0x000000000000a532      0x338 kernel/libkernel.a(userspace.c.obj)
                                       0x1454 (size before relaxing)
 .debug_str     0x000000000000a86a       0xd8 kernel/libkernel.a(mempool.c.obj)
                                        0x9b3 (size before relaxing)
 .debug_str     0x000000000000a942      0x103 kernel/libkernel.a(userspace_handler.c.obj)
                                        0xdc5 (size before relaxing)
 .debug_str     0x000000000000aa45       0xab kernel/libkernel.a(kheap.c.obj)
                                        0xa5e (size before relaxing)
 .debug_str     0x000000000000aaf0       0x57 CMakeFiles/offsets.dir/arch/arm/core/offsets/offsets.c.obj
                                        0x760 (size before relaxing)

.debug_loc      0x0000000000000000    0x267ca
 *(SORT_BY_ALIGNMENT(.debug_loc))
 .debug_loc     0x0000000000000000     0x190b ../app/libapp.a(main.c.obj)
 .debug_loc     0x000000000000190b      0x51e libzephyr.a(fdtable.c.obj)
 .debug_loc     0x0000000000001e29      0x135 libzephyr.a(notify.c.obj)
 .debug_loc     0x0000000000001f5e      0xd59 libzephyr.a(printk.c.obj)
 .debug_loc     0x0000000000002cb7     0x1d2f libzephyr.a(onoff.c.obj)
 .debug_loc     0x00000000000049e6      0x180 libzephyr.a(thread_entry.c.obj)
 .debug_loc     0x0000000000004b66      0x761 libzephyr.a(work_q.c.obj)
 .debug_loc     0x00000000000052c7     0x1b7d libzephyr.a(heap.c.obj)
 .debug_loc     0x0000000000006e44      0x672 libzephyr.a(mutex.c.obj)
 .debug_loc     0x00000000000074b6      0x248 libzephyr.a(uart_console.c.obj)
 .debug_loc     0x00000000000076fe     0x1882 libzephyr.a(nrf_power_clock.c.obj)
 .debug_loc     0x0000000000008f80       0x4a libzephyr.a(sys_clock_init.c.obj)
 .debug_loc     0x0000000000008fca      0xa76 libzephyr.a(nrf_rtc_timer.c.obj)
 .debug_loc     0x0000000000009a40     0x196c libzephyr.a(SEGGER_RTT.c.obj)
 .debug_loc     0x000000000000b3ac       0x25 libzephyr.a(SEGGER_RTT_zephyr.c.obj)
 .debug_loc     0x000000000000b3d1       0x3b arch/arch/arm/core/aarch32/libarch__arm__core__aarch32.a(swap.c.obj)
 .debug_loc     0x000000000000b40c      0x1d0 arch/arch/arm/core/aarch32/libarch__arm__core__aarch32.a(irq_manage.c.obj)
 .debug_loc     0x000000000000b5dc      0x2e0 arch/arch/arm/core/aarch32/libarch__arm__core__aarch32.a(thread.c.obj)
 .debug_loc     0x000000000000b8bc      0x13b arch/arch/arm/core/aarch32/libarch__arm__core__aarch32.a(fatal.c.obj)
 .debug_loc     0x000000000000b9f7       0x3c arch/arch/arm/core/aarch32/libarch__arm__core__aarch32.a(prep_c.c.obj)
 .debug_loc     0x000000000000ba33      0x66a arch/arch/arm/core/aarch32/cortex_m/libarch__arm__core__aarch32__cortex_m.a(fault.c.obj)
 .debug_loc     0x000000000000c09d       0x6a arch/arch/arm/core/aarch32/cortex_m/libarch__arm__core__aarch32__cortex_m.a(irq_init.c.obj)
 .debug_loc     0x000000000000c107       0x7e arch/arch/arm/core/aarch32/cortex_m/libarch__arm__core__aarch32__cortex_m.a(thread_abort.c.obj)
 .debug_loc     0x000000000000c185      0x331 arch/arch/arm/core/aarch32/cortex_m/mpu/libarch__arm__core__aarch32__cortex_m__mpu.a(arm_core_mpu.c.obj)
 .debug_loc     0x000000000000c4b6      0xd3b arch/arch/arm/core/aarch32/cortex_m/mpu/libarch__arm__core__aarch32__cortex_m__mpu.a(arm_mpu.c.obj)
 .debug_loc     0x000000000000d1f1      0xb8e lib/libc/minimal/liblib__libc__minimal.a(string.c.obj)
 .debug_loc     0x000000000000dd7f      0xa57 lib/libc/minimal/liblib__libc__minimal.a(stdout_console.c.obj)
 .debug_loc     0x000000000000e7d6      0x19c soc/arm/nordic_nrf/nrf52/libsoc__arm__nordic_nrf__nrf52.a(soc.c.obj)
 .debug_loc     0x000000000000e972     0x1892 drivers/gpio/libdrivers__gpio.a(gpio_nrfx.c.obj)
 .debug_loc     0x0000000000010204     0x1685 drivers/gpio/libdrivers__gpio.a(gpio_handlers.c.obj)
 .debug_loc     0x0000000000011889      0xadf drivers/serial/libdrivers__serial.a(uart_nrfx_uart.c.obj)
 .debug_loc     0x0000000000012368      0xdc8 drivers/serial/libdrivers__serial.a(uart_handlers.c.obj)
 .debug_loc     0x0000000000013130      0x1b1 ../modules/nordic/lib..__modules__hal__nordic.a(system_nrf52.c.obj)
 .debug_loc     0x00000000000132e1      0x307 ../modules/nordic/lib..__modules__hal__nordic.a(nrfx_glue.c.obj)
 .debug_loc     0x00000000000135e8      0x28c kernel/libkernel.a(device.c.obj)
 .debug_loc     0x0000000000013874       0x86 kernel/libkernel.a(errno.c.obj)
 .debug_loc     0x00000000000138fa      0x1b4 kernel/libkernel.a(fatal.c.obj)
 .debug_loc     0x0000000000013aae       0xcb kernel/libkernel.a(idle.c.obj)
 .debug_loc     0x0000000000013b79      0x27b kernel/libkernel.a(init.c.obj)
 .debug_loc     0x0000000000013df4     0x1bfb kernel/libkernel.a(msg_q.c.obj)
 .debug_loc     0x00000000000159ef      0xbd6 kernel/libkernel.a(mutex.c.obj)
 .debug_loc     0x00000000000165c5     0x2177 kernel/libkernel.a(queue.c.obj)
 .debug_loc     0x000000000001873c     0x4c7d kernel/libkernel.a(sched.c.obj)
 .debug_loc     0x000000000001d3b9      0xed8 kernel/libkernel.a(sem.c.obj)
 .debug_loc     0x000000000001e291      0xc0c kernel/libkernel.a(stack.c.obj)
 .debug_loc     0x000000000001ee9d     0x19ef kernel/libkernel.a(thread.c.obj)
 .debug_loc     0x000000000002088c      0xa52 kernel/libkernel.a(work_q.c.obj)
 .debug_loc     0x00000000000212de      0xe61 kernel/libkernel.a(timeout.c.obj)
 .debug_loc     0x000000000002213f     0x181d kernel/libkernel.a(timer.c.obj)
 .debug_loc     0x000000000002395c      0x66e kernel/libkernel.a(futex.c.obj)
 .debug_loc     0x0000000000023fca      0x704 kernel/libkernel.a(mem_domain.c.obj)
 .debug_loc     0x00000000000246ce     0x14ba kernel/libkernel.a(userspace.c.obj)
 .debug_loc     0x0000000000025b88      0x31d kernel/libkernel.a(mempool.c.obj)
 .debug_loc     0x0000000000025ea5      0x4aa kernel/libkernel.a(userspace_handler.c.obj)
 .debug_loc     0x000000000002634f      0x47b kernel/libkernel.a(kheap.c.obj)

.debug_macinfo
 *(SORT_BY_ALIGNMENT(.debug_macinfo))

.debug_weaknames
 *(SORT_BY_ALIGNMENT(.debug_weaknames))

.debug_funcnames
 *(SORT_BY_ALIGNMENT(.debug_funcnames))

.debug_typenames
 *(SORT_BY_ALIGNMENT(.debug_typenames))

.debug_varnames
 *(SORT_BY_ALIGNMENT(.debug_varnames))

.debug_pubtypes
 *(SORT_BY_ALIGNMENT(.debug_pubtypes))

.debug_ranges   0x0000000000000000     0x78b8
 *(SORT_BY_ALIGNMENT(.debug_ranges))
 .debug_ranges  0x0000000000000000       0x20 arch/arch/arm/core/aarch32/libarch__arm__core__aarch32.a(swap_helper.S.obj)
 .debug_ranges  0x0000000000000020       0x28 arch/arch/arm/core/aarch32/libarch__arm__core__aarch32.a(cpu_idle.S.obj)
 .debug_ranges  0x0000000000000048       0x28 arch/arch/arm/core/aarch32/libarch__arm__core__aarch32.a(userspace.S.obj)
 .debug_ranges  0x0000000000000070      0x430 ../app/libapp.a(main.c.obj)
 .debug_ranges  0x00000000000004a0       0xd0 libzephyr.a(fdtable.c.obj)
 .debug_ranges  0x0000000000000570       0x30 libzephyr.a(notify.c.obj)
 .debug_ranges  0x00000000000005a0      0x1a0 libzephyr.a(printk.c.obj)
 .debug_ranges  0x0000000000000740      0x688 libzephyr.a(onoff.c.obj)
 .debug_ranges  0x0000000000000dc8       0x40 libzephyr.a(thread_entry.c.obj)
 .debug_ranges  0x0000000000000e08      0x118 libzephyr.a(work_q.c.obj)
 .debug_ranges  0x0000000000000f20      0x500 libzephyr.a(heap.c.obj)
 .debug_ranges  0x0000000000001420      0x158 libzephyr.a(mutex.c.obj)
 .debug_ranges  0x0000000000001578       0x10 libzephyr.a(configs.c.obj)
 .debug_ranges  0x0000000000001588       0x70 libzephyr.a(uart_console.c.obj)
 .debug_ranges  0x00000000000015f8      0x510 libzephyr.a(nrf_power_clock.c.obj)
 .debug_ranges  0x0000000000001b08       0x30 libzephyr.a(sys_clock_init.c.obj)
 .debug_ranges  0x0000000000001b38      0x4c8 libzephyr.a(nrf_rtc_timer.c.obj)
 .debug_ranges  0x0000000000002000      0x140 libzephyr.a(SEGGER_RTT.c.obj)
 .debug_ranges  0x0000000000002140       0x10 libzephyr.a(SEGGER_RTT_zephyr.c.obj)
 .debug_ranges  0x0000000000002150       0x10 arch/arch/arm/core/aarch32/libarch__arm__core__aarch32.a(swap.c.obj)
 .debug_ranges  0x0000000000002160       0x50 arch/arch/arm/core/aarch32/libarch__arm__core__aarch32.a(irq_manage.c.obj)
 .debug_ranges  0x00000000000021b0       0x28 arch/arch/arm/core/aarch32/libarch__arm__core__aarch32.a(thread.c.obj)
 .debug_ranges  0x00000000000021d8       0x28 arch/arch/arm/core/aarch32/libarch__arm__core__aarch32.a(fatal.c.obj)
 .debug_ranges  0x0000000000002200       0x10 arch/arch/arm/core/aarch32/libarch__arm__core__aarch32.a(nmi.c.obj)
 .debug_ranges  0x0000000000002210       0x40 arch/arch/arm/core/aarch32/libarch__arm__core__aarch32.a(prep_c.c.obj)
 .debug_ranges  0x0000000000002250      0x120 arch/arch/arm/core/aarch32/cortex_m/libarch__arm__core__aarch32__cortex_m.a(fault.c.obj)
 .debug_ranges  0x0000000000002370       0x38 arch/arch/arm/core/aarch32/cortex_m/libarch__arm__core__aarch32__cortex_m.a(irq_init.c.obj)
 .debug_ranges  0x00000000000023a8       0x28 arch/arch/arm/core/aarch32/cortex_m/libarch__arm__core__aarch32__cortex_m.a(thread_abort.c.obj)
 .debug_ranges  0x00000000000023d0       0x88 arch/arch/arm/core/aarch32/cortex_m/mpu/libarch__arm__core__aarch32__cortex_m__mpu.a(arm_core_mpu.c.obj)
 .debug_ranges  0x0000000000002458      0x310 arch/arch/arm/core/aarch32/cortex_m/mpu/libarch__arm__core__aarch32__cortex_m__mpu.a(arm_mpu.c.obj)
 .debug_ranges  0x0000000000002768       0x80 lib/libc/minimal/liblib__libc__minimal.a(string.c.obj)
 .debug_ranges  0x00000000000027e8      0x170 lib/libc/minimal/liblib__libc__minimal.a(stdout_console.c.obj)
 .debug_ranges  0x0000000000002958       0x28 soc/arm/nordic_nrf/nrf52/libsoc__arm__nordic_nrf__nrf52.a(soc.c.obj)
 .debug_ranges  0x0000000000002980      0x800 drivers/gpio/libdrivers__gpio.a(gpio_nrfx.c.obj)
 .debug_ranges  0x0000000000003180      0x218 drivers/gpio/libdrivers__gpio.a(gpio_handlers.c.obj)
 .debug_ranges  0x0000000000003398      0x2e0 drivers/serial/libdrivers__serial.a(uart_nrfx_uart.c.obj)
 .debug_ranges  0x0000000000003678      0x230 drivers/serial/libdrivers__serial.a(uart_handlers.c.obj)
 .debug_ranges  0x00000000000038a8       0x28 ../modules/nordic/lib..__modules__hal__nordic.a(system_nrf52.c.obj)
 .debug_ranges  0x00000000000038d0       0x60 ../modules/nordic/lib..__modules__hal__nordic.a(nrfx_glue.c.obj)
 .debug_ranges  0x0000000000003930       0x80 kernel/libkernel.a(device.c.obj)
 .debug_ranges  0x00000000000039b0       0x30 kernel/libkernel.a(errno.c.obj)
 .debug_ranges  0x00000000000039e0       0x98 kernel/libkernel.a(fatal.c.obj)
 .debug_ranges  0x0000000000003a78       0x48 kernel/libkernel.a(idle.c.obj)
 .debug_ranges  0x0000000000003ac0      0x1c8 kernel/libkernel.a(init.c.obj)
 .debug_ranges  0x0000000000003c88      0x3c0 kernel/libkernel.a(msg_q.c.obj)
 .debug_ranges  0x0000000000004048      0x198 kernel/libkernel.a(mutex.c.obj)
 .debug_ranges  0x00000000000041e0      0x5d8 kernel/libkernel.a(queue.c.obj)
 .debug_ranges  0x00000000000047b8     0x1458 kernel/libkernel.a(sched.c.obj)
 .debug_ranges  0x0000000000005c10      0x1f0 kernel/libkernel.a(sem.c.obj)
 .debug_ranges  0x0000000000005e00      0x238 kernel/libkernel.a(stack.c.obj)
 .debug_ranges  0x0000000000006038      0x558 kernel/libkernel.a(thread.c.obj)
 .debug_ranges  0x0000000000006590      0x298 kernel/libkernel.a(work_q.c.obj)
 .debug_ranges  0x0000000000006828      0x518 kernel/libkernel.a(timeout.c.obj)
 .debug_ranges  0x0000000000006d40      0x328 kernel/libkernel.a(timer.c.obj)
 .debug_ranges  0x0000000000007068      0x148 kernel/libkernel.a(futex.c.obj)
 .debug_ranges  0x00000000000071b0      0x1d8 kernel/libkernel.a(mem_domain.c.obj)
 .debug_ranges  0x0000000000007388      0x340 kernel/libkernel.a(userspace.c.obj)
 .debug_ranges  0x00000000000076c8       0x70 kernel/libkernel.a(mempool.c.obj)
 .debug_ranges  0x0000000000007738       0xc8 kernel/libkernel.a(userspace_handler.c.obj)
 .debug_ranges  0x0000000000007800       0xa8 kernel/libkernel.a(kheap.c.obj)
 .debug_ranges  0x00000000000078a8       0x10 CMakeFiles/offsets.dir/arch/arm/core/offsets/offsets.c.obj

.debug_macro
 *(SORT_BY_ALIGNMENT(.debug_macro))

.ARM.attributes
                0x0000000000000000       0x31
 *(SORT_BY_ALIGNMENT(.ARM.attributes))
 .ARM.attributes
                0x0000000000000000       0x33 CMakeFiles/app_smem_unaligned_prebuilt.dir/misc/empty_file.c.obj
 .ARM.attributes
                0x0000000000000033       0x2e ../app/libapp.a(main.c.obj)
 .ARM.attributes
                0x0000000000000061       0x2e libzephyr.a(crc32_sw.c.obj)
 .ARM.attributes
                0x000000000000008f       0x2e libzephyr.a(crc16_sw.c.obj)
 .ARM.attributes
                0x00000000000000bd       0x2e libzephyr.a(crc8_sw.c.obj)
 .ARM.attributes
                0x00000000000000eb       0x2e libzephyr.a(crc7_sw.c.obj)
 .ARM.attributes
                0x0000000000000119       0x2e libzephyr.a(dec.c.obj)
 .ARM.attributes
                0x0000000000000147       0x2e libzephyr.a(fdtable.c.obj)
 .ARM.attributes
                0x0000000000000175       0x2e libzephyr.a(hex.c.obj)
 .ARM.attributes
                0x00000000000001a3       0x2e libzephyr.a(mempool.c.obj)
 .ARM.attributes
                0x00000000000001d1       0x2e libzephyr.a(notify.c.obj)
 .ARM.attributes
                0x00000000000001ff       0x2e libzephyr.a(printk.c.obj)
 .ARM.attributes
                0x000000000000022d       0x2e libzephyr.a(onoff.c.obj)
 .ARM.attributes
                0x000000000000025b       0x2e libzephyr.a(rb.c.obj)
 .ARM.attributes
                0x0000000000000289       0x2e libzephyr.a(sem.c.obj)
 .ARM.attributes
                0x00000000000002b7       0x2e libzephyr.a(thread_entry.c.obj)
 .ARM.attributes
                0x00000000000002e5       0x2e libzephyr.a(timeutil.c.obj)
 .ARM.attributes
                0x0000000000000313       0x2e libzephyr.a(work_q.c.obj)
 .ARM.attributes
                0x0000000000000341       0x2e libzephyr.a(heap.c.obj)
 .ARM.attributes
                0x000000000000036f       0x2e libzephyr.a(heap-validate.c.obj)
 .ARM.attributes
                0x000000000000039d       0x2e libzephyr.a(mutex.c.obj)
 .ARM.attributes
                0x00000000000003cb       0x2e libzephyr.a(configs.c.obj)
 .ARM.attributes
                0x00000000000003f9       0x33 libzephyr.a(validate_base_addresses.c.obj)
 .ARM.attributes
                0x000000000000042c       0x33 libzephyr.a(validate_enabled_instances.c.obj)
 .ARM.attributes
                0x000000000000045f       0x2e libzephyr.a(power.c.obj)
 .ARM.attributes
                0x000000000000048d       0x2e libzephyr.a(policy_residency.c.obj)
 .ARM.attributes
                0x00000000000004bb       0x2e libzephyr.a(uart_console.c.obj)
 .ARM.attributes
                0x00000000000004e9       0x2e libzephyr.a(nrf_power_clock.c.obj)
 .ARM.attributes
                0x0000000000000517       0x2e libzephyr.a(sys_clock_init.c.obj)
 .ARM.attributes
                0x0000000000000545       0x2e libzephyr.a(nrf_rtc_timer.c.obj)
 .ARM.attributes
                0x0000000000000573       0x2e libzephyr.a(SEGGER_RTT.c.obj)
 .ARM.attributes
                0x00000000000005a1       0x2e libzephyr.a(SEGGER_RTT_zephyr.c.obj)
 .ARM.attributes
                0x00000000000005cf       0x33 arch/common/libarch__common.a(isr_tables.c.obj)
 .ARM.attributes
                0x0000000000000602       0x33 arch/common/libarch__common.a(sw_isr_common.c.obj)
 .ARM.attributes
                0x0000000000000635       0x2e arch/arch/arm/core/aarch32/libarch__arm__core__aarch32.a(swap.c.obj)
 .ARM.attributes
                0x0000000000000663       0x1c arch/arch/arm/core/aarch32/libarch__arm__core__aarch32.a(swap_helper.S.obj)
 .ARM.attributes
                0x000000000000067f       0x2e arch/arch/arm/core/aarch32/libarch__arm__core__aarch32.a(irq_manage.c.obj)
 .ARM.attributes
                0x00000000000006ad       0x2e arch/arch/arm/core/aarch32/libarch__arm__core__aarch32.a(thread.c.obj)
 .ARM.attributes
                0x00000000000006db       0x1c arch/arch/arm/core/aarch32/libarch__arm__core__aarch32.a(cpu_idle.S.obj)
 .ARM.attributes
                0x00000000000006f7       0x2e arch/arch/arm/core/aarch32/libarch__arm__core__aarch32.a(fatal.c.obj)
 .ARM.attributes
                0x0000000000000725       0x2e arch/arch/arm/core/aarch32/libarch__arm__core__aarch32.a(nmi.c.obj)
 .ARM.attributes
                0x0000000000000753       0x1c arch/arch/arm/core/aarch32/libarch__arm__core__aarch32.a(nmi_on_reset.S.obj)
 .ARM.attributes
                0x000000000000076f       0x2e arch/arch/arm/core/aarch32/libarch__arm__core__aarch32.a(prep_c.c.obj)
 .ARM.attributes
                0x000000000000079d       0x1c arch/arch/arm/core/aarch32/libarch__arm__core__aarch32.a(isr_wrapper.S.obj)
 .ARM.attributes
                0x00000000000007b9       0x1c arch/arch/arm/core/aarch32/libarch__arm__core__aarch32.a(userspace.S.obj)
 .ARM.attributes
                0x00000000000007d5       0x1c arch/arch/arm/core/aarch32/cortex_m/libarch__arm__core__aarch32__cortex_m.a(vector_table.S.obj)
 .ARM.attributes
                0x00000000000007f1       0x1c arch/arch/arm/core/aarch32/cortex_m/libarch__arm__core__aarch32__cortex_m.a(reset.S.obj)
 .ARM.attributes
                0x000000000000080d       0x1c arch/arch/arm/core/aarch32/cortex_m/libarch__arm__core__aarch32__cortex_m.a(fault_s.S.obj)
 .ARM.attributes
                0x0000000000000829       0x2e arch/arch/arm/core/aarch32/cortex_m/libarch__arm__core__aarch32__cortex_m.a(fault.c.obj)
 .ARM.attributes
                0x0000000000000857       0x1c arch/arch/arm/core/aarch32/cortex_m/libarch__arm__core__aarch32__cortex_m.a(exc_exit.S.obj)
 .ARM.attributes
                0x0000000000000873       0x2e arch/arch/arm/core/aarch32/cortex_m/libarch__arm__core__aarch32__cortex_m.a(scb.c.obj)
 .ARM.attributes
                0x00000000000008a1       0x2e arch/arch/arm/core/aarch32/cortex_m/libarch__arm__core__aarch32__cortex_m.a(irq_init.c.obj)
 .ARM.attributes
                0x00000000000008cf       0x2e arch/arch/arm/core/aarch32/cortex_m/libarch__arm__core__aarch32__cortex_m.a(thread_abort.c.obj)
 .ARM.attributes
                0x00000000000008fd       0x2e arch/arch/arm/core/aarch32/cortex_m/mpu/libarch__arm__core__aarch32__cortex_m__mpu.a(arm_core_mpu.c.obj)
 .ARM.attributes
                0x000000000000092b       0x2e arch/arch/arm/core/aarch32/cortex_m/mpu/libarch__arm__core__aarch32__cortex_m__mpu.a(arm_mpu.c.obj)
 .ARM.attributes
                0x0000000000000959       0x2e lib/libc/minimal/liblib__libc__minimal.a(atoi.c.obj)
 .ARM.attributes
                0x0000000000000987       0x2e lib/libc/minimal/liblib__libc__minimal.a(strtol.c.obj)
 .ARM.attributes
                0x00000000000009b5       0x2e lib/libc/minimal/liblib__libc__minimal.a(strtoul.c.obj)
 .ARM.attributes
                0x00000000000009e3       0x2e lib/libc/minimal/liblib__libc__minimal.a(malloc.c.obj)
 .ARM.attributes
                0x0000000000000a11       0x2e lib/libc/minimal/liblib__libc__minimal.a(bsearch.c.obj)
 .ARM.attributes
                0x0000000000000a3f       0x2e lib/libc/minimal/liblib__libc__minimal.a(exit.c.obj)
 .ARM.attributes
                0x0000000000000a6d       0x2e lib/libc/minimal/liblib__libc__minimal.a(strncasecmp.c.obj)
 .ARM.attributes
                0x0000000000000a9b       0x2e lib/libc/minimal/liblib__libc__minimal.a(strstr.c.obj)
 .ARM.attributes
                0x0000000000000ac9       0x2e lib/libc/minimal/liblib__libc__minimal.a(string.c.obj)
 .ARM.attributes
                0x0000000000000af7       0x2e lib/libc/minimal/liblib__libc__minimal.a(strspn.c.obj)
 .ARM.attributes
                0x0000000000000b25       0x2e lib/libc/minimal/liblib__libc__minimal.a(prf.c.obj)
 .ARM.attributes
                0x0000000000000b53       0x2e lib/libc/minimal/liblib__libc__minimal.a(stdout_console.c.obj)
 .ARM.attributes
                0x0000000000000b81       0x2e lib/libc/minimal/liblib__libc__minimal.a(sprintf.c.obj)
 .ARM.attributes
                0x0000000000000baf       0x2e lib/libc/minimal/liblib__libc__minimal.a(fprintf.c.obj)
 .ARM.attributes
                0x0000000000000bdd       0x2e lib/libc/minimal/liblib__libc__minimal.a(gmtime.c.obj)
 .ARM.attributes
                0x0000000000000c0b       0x33 lib/posix/liblib__posix.a(pthread_common.c.obj)
 .ARM.attributes
                0x0000000000000c3e       0x2e lib/posix/liblib__posix.a(nanosleep.c.obj)
 .ARM.attributes
                0x0000000000000c6c       0x33 soc/arm/common/cortex_m/libsoc__arm__common__cortex_m.a(arm_mpu_regions.c.obj)
 .ARM.attributes
                0x0000000000000c9f       0x2e soc/arm/nordic_nrf/nrf52/libsoc__arm__nordic_nrf__nrf52.a(soc.c.obj)
 .ARM.attributes
                0x0000000000000ccd       0x2e soc/arm/nordic_nrf/nrf52/libsoc__arm__nordic_nrf__nrf52.a(power.c.obj)
 .ARM.attributes
                0x0000000000000cfb       0x2e drivers/gpio/libdrivers__gpio.a(gpio_nrfx.c.obj)
 .ARM.attributes
                0x0000000000000d29       0x2e drivers/gpio/libdrivers__gpio.a(gpio_handlers.c.obj)
 .ARM.attributes
                0x0000000000000d57       0x2e drivers/serial/libdrivers__serial.a(uart_nrfx_uart.c.obj)
 .ARM.attributes
                0x0000000000000d85       0x2e drivers/serial/libdrivers__serial.a(uart_handlers.c.obj)
 .ARM.attributes
                0x0000000000000db3       0x2e ../modules/nordic/lib..__modules__hal__nordic.a(system_nrf52.c.obj)
 .ARM.attributes
                0x0000000000000de1       0x2e ../modules/nordic/lib..__modules__hal__nordic.a(nrfx_glue.c.obj)
 .ARM.attributes
                0x0000000000000e0f       0x2e kernel/libkernel.a(device.c.obj)
 .ARM.attributes
                0x0000000000000e3d       0x2e kernel/libkernel.a(errno.c.obj)
 .ARM.attributes
                0x0000000000000e6b       0x2e kernel/libkernel.a(fatal.c.obj)
 .ARM.attributes
                0x0000000000000e99       0x2e kernel/libkernel.a(idle.c.obj)
 .ARM.attributes
                0x0000000000000ec7       0x2e kernel/libkernel.a(init.c.obj)
 .ARM.attributes
                0x0000000000000ef5       0x2e kernel/libkernel.a(msg_q.c.obj)
 .ARM.attributes
                0x0000000000000f23       0x2e kernel/libkernel.a(mutex.c.obj)
 .ARM.attributes
                0x0000000000000f51       0x2e kernel/libkernel.a(queue.c.obj)
 .ARM.attributes
                0x0000000000000f7f       0x2e kernel/libkernel.a(sched.c.obj)
 .ARM.attributes
                0x0000000000000fad       0x2e kernel/libkernel.a(sem.c.obj)
 .ARM.attributes
                0x0000000000000fdb       0x2e kernel/libkernel.a(stack.c.obj)
 .ARM.attributes
                0x0000000000001009       0x2e kernel/libkernel.a(thread.c.obj)
 .ARM.attributes
                0x0000000000001037       0x2e kernel/libkernel.a(work_q.c.obj)
 .ARM.attributes
                0x0000000000001065       0x2e kernel/libkernel.a(timeout.c.obj)
 .ARM.attributes
                0x0000000000001093       0x2e kernel/libkernel.a(timer.c.obj)
 .ARM.attributes
                0x00000000000010c1       0x2e kernel/libkernel.a(futex.c.obj)
 .ARM.attributes
                0x00000000000010ef       0x2e kernel/libkernel.a(mem_domain.c.obj)
 .ARM.attributes
                0x000000000000111d       0x2e kernel/libkernel.a(userspace.c.obj)
 .ARM.attributes
                0x000000000000114b       0x2e kernel/libkernel.a(mempool.c.obj)
 .ARM.attributes
                0x0000000000001179       0x2e kernel/libkernel.a(userspace_handler.c.obj)
 .ARM.attributes
                0x00000000000011a7       0x2e kernel/libkernel.a(kheap.c.obj)
 .ARM.attributes
                0x00000000000011d5       0x2e CMakeFiles/offsets.dir/arch/arm/core/offsets/offsets.c.obj
 .ARM.attributes
                0x0000000000001203       0x1e /home/huynhtai/Downloads/ebook_RTOS/Zephyr_SDK/arm-zephyr-eabi/bin/../lib/gcc/arm-zephyr-eabi/9.2.0/thumb/v7e-m/nofp/libgcc.a(_aeabi_ldivmod.o)
 .ARM.attributes
                0x0000000000001221       0x1e /home/huynhtai/Downloads/ebook_RTOS/Zephyr_SDK/arm-zephyr-eabi/bin/../lib/gcc/arm-zephyr-eabi/9.2.0/thumb/v7e-m/nofp/libgcc.a(_aeabi_uldivmod.o)
 .ARM.attributes
                0x000000000000123f       0x2e /home/huynhtai/Downloads/ebook_RTOS/Zephyr_SDK/arm-zephyr-eabi/bin/../lib/gcc/arm-zephyr-eabi/9.2.0/thumb/v7e-m/nofp/libgcc.a(_udivmoddi4.o)
 .ARM.attributes
                0x000000000000126d       0x1e /home/huynhtai/Downloads/ebook_RTOS/Zephyr_SDK/arm-zephyr-eabi/bin/../lib/gcc/arm-zephyr-eabi/9.2.0/thumb/v7e-m/nofp/libgcc.a(_dvmd_tls.o)
 *(SORT_BY_ALIGNMENT(.gnu.attributes))

.last_section   0x0000000000007910        0x0
                0x0000000000007910                _flash_used = (LOADADDR (.last_section) - _image_rom_start)
LOAD ../app/libapp.a
LOAD libzephyr.a
LOAD arch/common/libarch__common.a
LOAD arch/arch/arm/core/aarch32/libarch__arm__core__aarch32.a
LOAD arch/arch/arm/core/aarch32/cortex_m/libarch__arm__core__aarch32__cortex_m.a
LOAD arch/arch/arm/core/aarch32/cortex_m/mpu/libarch__arm__core__aarch32__cortex_m__mpu.a
LOAD lib/libc/minimal/liblib__libc__minimal.a
LOAD lib/posix/liblib__posix.a
LOAD soc/arm/common/cortex_m/libsoc__arm__common__cortex_m.a
LOAD soc/arm/nordic_nrf/nrf52/libsoc__arm__nordic_nrf__nrf52.a
LOAD drivers/gpio/libdrivers__gpio.a
LOAD drivers/serial/libdrivers__serial.a
LOAD ../modules/nordic/lib..__modules__hal__nordic.a
LOAD kernel/libkernel.a
LOAD CMakeFiles/offsets.dir/arch/arm/core/offsets/offsets.c.obj
LOAD /home/huynhtai/Downloads/ebook_RTOS/Zephyr_SDK/arm-zephyr-eabi/bin/../lib/gcc/arm-zephyr-eabi/9.2.0/thumb/v7e-m/nofp/libgcc.a
OUTPUT(app_smem_unaligned_prebuilt.elf elf32-littlearm)
